
web_server_central.elf:     file format elf32-littlearm

Sections:
Idx Name          Size      VMA       LMA       File off  Algn
  0 .isr_vector   0000013c  08000000  08000000  00010000  2**0
                  CONTENTS, ALLOC, LOAD, READONLY, DATA
  1 .text         00003db4  0800013c  0800013c  0001013c  2**2
                  CONTENTS, ALLOC, LOAD, READONLY, CODE
  2 .rodata       000000ac  08003ef0  08003ef0  00013ef0  2**0
                  CONTENTS, ALLOC, LOAD, READONLY, DATA
  3 .ARM.extab    00000000  08003f9c  08003f9c  00020070  2**0
                  CONTENTS
  4 .ARM          00000008  08003f9c  08003f9c  00013f9c  2**2
                  CONTENTS, ALLOC, LOAD, READONLY, DATA
  5 .preinit_array 00000000  08003fa4  08003fa4  00020070  2**0
                  CONTENTS, ALLOC, LOAD, DATA
  6 .init_array   00000004  08003fa4  08003fa4  00013fa4  2**2
                  CONTENTS, ALLOC, LOAD, DATA
  7 .fini_array   00000004  08003fa8  08003fa8  00013fa8  2**2
                  CONTENTS, ALLOC, LOAD, DATA
  8 .data         00000070  20000000  08003fac  00020000  2**2
                  CONTENTS, ALLOC, LOAD, DATA
  9 .bss          000003fc  20000070  0800401c  00020070  2**2
                  ALLOC
 10 ._user_heap_stack 00000604  2000046c  0800401c  0002046c  2**0
                  ALLOC
 11 .ARM.attributes 00000029  00000000  00000000  00020070  2**0
                  CONTENTS, READONLY
 12 .comment      00000053  00000000  00000000  00020099  2**0
                  CONTENTS, READONLY
 13 .debug_frame  00000614  00000000  00000000  000200ec  2**2
                  CONTENTS, READONLY, DEBUGGING, OCTETS

Disassembly of section .text:

0800013c <__do_global_dtors_aux>:
 800013c:	b510      	push	{r4, lr}
 800013e:	4c05      	ldr	r4, [pc, #20]	; (8000154 <__do_global_dtors_aux+0x18>)
 8000140:	7823      	ldrb	r3, [r4, #0]
 8000142:	b933      	cbnz	r3, 8000152 <__do_global_dtors_aux+0x16>
 8000144:	4b04      	ldr	r3, [pc, #16]	; (8000158 <__do_global_dtors_aux+0x1c>)
 8000146:	b113      	cbz	r3, 800014e <__do_global_dtors_aux+0x12>
 8000148:	4804      	ldr	r0, [pc, #16]	; (800015c <__do_global_dtors_aux+0x20>)
 800014a:	f3af 8000 	nop.w
 800014e:	2301      	movs	r3, #1
 8000150:	7023      	strb	r3, [r4, #0]
 8000152:	bd10      	pop	{r4, pc}
 8000154:	20000070 	.word	0x20000070
 8000158:	00000000 	.word	0x00000000
 800015c:	08003ed8 	.word	0x08003ed8

08000160 <frame_dummy>:
 8000160:	b508      	push	{r3, lr}
 8000162:	4b03      	ldr	r3, [pc, #12]	; (8000170 <frame_dummy+0x10>)
 8000164:	b11b      	cbz	r3, 800016e <frame_dummy+0xe>
 8000166:	4903      	ldr	r1, [pc, #12]	; (8000174 <frame_dummy+0x14>)
 8000168:	4803      	ldr	r0, [pc, #12]	; (8000178 <frame_dummy+0x18>)
 800016a:	f3af 8000 	nop.w
 800016e:	bd08      	pop	{r3, pc}
 8000170:	00000000 	.word	0x00000000
 8000174:	20000074 	.word	0x20000074
 8000178:	08003ed8 	.word	0x08003ed8

0800017c <strlen>:
 800017c:	4603      	mov	r3, r0
 800017e:	f813 2b01 	ldrb.w	r2, [r3], #1
 8000182:	2a00      	cmp	r2, #0
 8000184:	d1fb      	bne.n	800017e <strlen+0x2>
 8000186:	1a18      	subs	r0, r3, r0
 8000188:	3801      	subs	r0, #1
 800018a:	4770      	bx	lr

0800018c <__aeabi_drsub>:
 800018c:	f081 4100 	eor.w	r1, r1, #2147483648	; 0x80000000
 8000190:	e002      	b.n	8000198 <__adddf3>
 8000192:	bf00      	nop

08000194 <__aeabi_dsub>:
 8000194:	f083 4300 	eor.w	r3, r3, #2147483648	; 0x80000000

08000198 <__adddf3>:
 8000198:	b530      	push	{r4, r5, lr}
 800019a:	ea4f 0441 	mov.w	r4, r1, lsl #1
 800019e:	ea4f 0543 	mov.w	r5, r3, lsl #1
 80001a2:	ea94 0f05 	teq	r4, r5
 80001a6:	bf08      	it	eq
 80001a8:	ea90 0f02 	teqeq	r0, r2
 80001ac:	bf1f      	itttt	ne
 80001ae:	ea54 0c00 	orrsne.w	ip, r4, r0
 80001b2:	ea55 0c02 	orrsne.w	ip, r5, r2
 80001b6:	ea7f 5c64 	mvnsne.w	ip, r4, asr #21
 80001ba:	ea7f 5c65 	mvnsne.w	ip, r5, asr #21
 80001be:	f000 80e2 	beq.w	8000386 <__adddf3+0x1ee>
 80001c2:	ea4f 5454 	mov.w	r4, r4, lsr #21
 80001c6:	ebd4 5555 	rsbs	r5, r4, r5, lsr #21
 80001ca:	bfb8      	it	lt
 80001cc:	426d      	neglt	r5, r5
 80001ce:	dd0c      	ble.n	80001ea <__adddf3+0x52>
 80001d0:	442c      	add	r4, r5
 80001d2:	ea80 0202 	eor.w	r2, r0, r2
 80001d6:	ea81 0303 	eor.w	r3, r1, r3
 80001da:	ea82 0000 	eor.w	r0, r2, r0
 80001de:	ea83 0101 	eor.w	r1, r3, r1
 80001e2:	ea80 0202 	eor.w	r2, r0, r2
 80001e6:	ea81 0303 	eor.w	r3, r1, r3
 80001ea:	2d36      	cmp	r5, #54	; 0x36
 80001ec:	bf88      	it	hi
 80001ee:	bd30      	pophi	{r4, r5, pc}
 80001f0:	f011 4f00 	tst.w	r1, #2147483648	; 0x80000000
 80001f4:	ea4f 3101 	mov.w	r1, r1, lsl #12
 80001f8:	f44f 1c80 	mov.w	ip, #1048576	; 0x100000
 80001fc:	ea4c 3111 	orr.w	r1, ip, r1, lsr #12
 8000200:	d002      	beq.n	8000208 <__adddf3+0x70>
 8000202:	4240      	negs	r0, r0
 8000204:	eb61 0141 	sbc.w	r1, r1, r1, lsl #1
 8000208:	f013 4f00 	tst.w	r3, #2147483648	; 0x80000000
 800020c:	ea4f 3303 	mov.w	r3, r3, lsl #12
 8000210:	ea4c 3313 	orr.w	r3, ip, r3, lsr #12
 8000214:	d002      	beq.n	800021c <__adddf3+0x84>
 8000216:	4252      	negs	r2, r2
 8000218:	eb63 0343 	sbc.w	r3, r3, r3, lsl #1
 800021c:	ea94 0f05 	teq	r4, r5
 8000220:	f000 80a7 	beq.w	8000372 <__adddf3+0x1da>
 8000224:	f1a4 0401 	sub.w	r4, r4, #1
 8000228:	f1d5 0e20 	rsbs	lr, r5, #32
 800022c:	db0d      	blt.n	800024a <__adddf3+0xb2>
 800022e:	fa02 fc0e 	lsl.w	ip, r2, lr
 8000232:	fa22 f205 	lsr.w	r2, r2, r5
 8000236:	1880      	adds	r0, r0, r2
 8000238:	f141 0100 	adc.w	r1, r1, #0
 800023c:	fa03 f20e 	lsl.w	r2, r3, lr
 8000240:	1880      	adds	r0, r0, r2
 8000242:	fa43 f305 	asr.w	r3, r3, r5
 8000246:	4159      	adcs	r1, r3
 8000248:	e00e      	b.n	8000268 <__adddf3+0xd0>
 800024a:	f1a5 0520 	sub.w	r5, r5, #32
 800024e:	f10e 0e20 	add.w	lr, lr, #32
 8000252:	2a01      	cmp	r2, #1
 8000254:	fa03 fc0e 	lsl.w	ip, r3, lr
 8000258:	bf28      	it	cs
 800025a:	f04c 0c02 	orrcs.w	ip, ip, #2
 800025e:	fa43 f305 	asr.w	r3, r3, r5
 8000262:	18c0      	adds	r0, r0, r3
 8000264:	eb51 71e3 	adcs.w	r1, r1, r3, asr #31
 8000268:	f001 4500 	and.w	r5, r1, #2147483648	; 0x80000000
 800026c:	d507      	bpl.n	800027e <__adddf3+0xe6>
 800026e:	f04f 0e00 	mov.w	lr, #0
 8000272:	f1dc 0c00 	rsbs	ip, ip, #0
 8000276:	eb7e 0000 	sbcs.w	r0, lr, r0
 800027a:	eb6e 0101 	sbc.w	r1, lr, r1
 800027e:	f5b1 1f80 	cmp.w	r1, #1048576	; 0x100000
 8000282:	d31b      	bcc.n	80002bc <__adddf3+0x124>
 8000284:	f5b1 1f00 	cmp.w	r1, #2097152	; 0x200000
 8000288:	d30c      	bcc.n	80002a4 <__adddf3+0x10c>
 800028a:	0849      	lsrs	r1, r1, #1
 800028c:	ea5f 0030 	movs.w	r0, r0, rrx
 8000290:	ea4f 0c3c 	mov.w	ip, ip, rrx
 8000294:	f104 0401 	add.w	r4, r4, #1
 8000298:	ea4f 5244 	mov.w	r2, r4, lsl #21
 800029c:	f512 0f80 	cmn.w	r2, #4194304	; 0x400000
 80002a0:	f080 809a 	bcs.w	80003d8 <__adddf3+0x240>
 80002a4:	f1bc 4f00 	cmp.w	ip, #2147483648	; 0x80000000
 80002a8:	bf08      	it	eq
 80002aa:	ea5f 0c50 	movseq.w	ip, r0, lsr #1
 80002ae:	f150 0000 	adcs.w	r0, r0, #0
 80002b2:	eb41 5104 	adc.w	r1, r1, r4, lsl #20
 80002b6:	ea41 0105 	orr.w	r1, r1, r5
 80002ba:	bd30      	pop	{r4, r5, pc}
 80002bc:	ea5f 0c4c 	movs.w	ip, ip, lsl #1
 80002c0:	4140      	adcs	r0, r0
 80002c2:	eb41 0101 	adc.w	r1, r1, r1
 80002c6:	3c01      	subs	r4, #1
 80002c8:	bf28      	it	cs
 80002ca:	f5b1 1f80 	cmpcs.w	r1, #1048576	; 0x100000
 80002ce:	d2e9      	bcs.n	80002a4 <__adddf3+0x10c>
 80002d0:	f091 0f00 	teq	r1, #0
 80002d4:	bf04      	itt	eq
 80002d6:	4601      	moveq	r1, r0
 80002d8:	2000      	moveq	r0, #0
 80002da:	fab1 f381 	clz	r3, r1
 80002de:	bf08      	it	eq
 80002e0:	3320      	addeq	r3, #32
 80002e2:	f1a3 030b 	sub.w	r3, r3, #11
 80002e6:	f1b3 0220 	subs.w	r2, r3, #32
 80002ea:	da0c      	bge.n	8000306 <__adddf3+0x16e>
 80002ec:	320c      	adds	r2, #12
 80002ee:	dd08      	ble.n	8000302 <__adddf3+0x16a>
 80002f0:	f102 0c14 	add.w	ip, r2, #20
 80002f4:	f1c2 020c 	rsb	r2, r2, #12
 80002f8:	fa01 f00c 	lsl.w	r0, r1, ip
 80002fc:	fa21 f102 	lsr.w	r1, r1, r2
 8000300:	e00c      	b.n	800031c <__adddf3+0x184>
 8000302:	f102 0214 	add.w	r2, r2, #20
 8000306:	bfd8      	it	le
 8000308:	f1c2 0c20 	rsble	ip, r2, #32
 800030c:	fa01 f102 	lsl.w	r1, r1, r2
 8000310:	fa20 fc0c 	lsr.w	ip, r0, ip
 8000314:	bfdc      	itt	le
 8000316:	ea41 010c 	orrle.w	r1, r1, ip
 800031a:	4090      	lslle	r0, r2
 800031c:	1ae4      	subs	r4, r4, r3
 800031e:	bfa2      	ittt	ge
 8000320:	eb01 5104 	addge.w	r1, r1, r4, lsl #20
 8000324:	4329      	orrge	r1, r5
 8000326:	bd30      	popge	{r4, r5, pc}
 8000328:	ea6f 0404 	mvn.w	r4, r4
 800032c:	3c1f      	subs	r4, #31
 800032e:	da1c      	bge.n	800036a <__adddf3+0x1d2>
 8000330:	340c      	adds	r4, #12
 8000332:	dc0e      	bgt.n	8000352 <__adddf3+0x1ba>
 8000334:	f104 0414 	add.w	r4, r4, #20
 8000338:	f1c4 0220 	rsb	r2, r4, #32
 800033c:	fa20 f004 	lsr.w	r0, r0, r4
 8000340:	fa01 f302 	lsl.w	r3, r1, r2
 8000344:	ea40 0003 	orr.w	r0, r0, r3
 8000348:	fa21 f304 	lsr.w	r3, r1, r4
 800034c:	ea45 0103 	orr.w	r1, r5, r3
 8000350:	bd30      	pop	{r4, r5, pc}
 8000352:	f1c4 040c 	rsb	r4, r4, #12
 8000356:	f1c4 0220 	rsb	r2, r4, #32
 800035a:	fa20 f002 	lsr.w	r0, r0, r2
 800035e:	fa01 f304 	lsl.w	r3, r1, r4
 8000362:	ea40 0003 	orr.w	r0, r0, r3
 8000366:	4629      	mov	r1, r5
 8000368:	bd30      	pop	{r4, r5, pc}
 800036a:	fa21 f004 	lsr.w	r0, r1, r4
 800036e:	4629      	mov	r1, r5
 8000370:	bd30      	pop	{r4, r5, pc}
 8000372:	f094 0f00 	teq	r4, #0
 8000376:	f483 1380 	eor.w	r3, r3, #1048576	; 0x100000
 800037a:	bf06      	itte	eq
 800037c:	f481 1180 	eoreq.w	r1, r1, #1048576	; 0x100000
 8000380:	3401      	addeq	r4, #1
 8000382:	3d01      	subne	r5, #1
 8000384:	e74e      	b.n	8000224 <__adddf3+0x8c>
 8000386:	ea7f 5c64 	mvns.w	ip, r4, asr #21
 800038a:	bf18      	it	ne
 800038c:	ea7f 5c65 	mvnsne.w	ip, r5, asr #21
 8000390:	d029      	beq.n	80003e6 <__adddf3+0x24e>
 8000392:	ea94 0f05 	teq	r4, r5
 8000396:	bf08      	it	eq
 8000398:	ea90 0f02 	teqeq	r0, r2
 800039c:	d005      	beq.n	80003aa <__adddf3+0x212>
 800039e:	ea54 0c00 	orrs.w	ip, r4, r0
 80003a2:	bf04      	itt	eq
 80003a4:	4619      	moveq	r1, r3
 80003a6:	4610      	moveq	r0, r2
 80003a8:	bd30      	pop	{r4, r5, pc}
 80003aa:	ea91 0f03 	teq	r1, r3
 80003ae:	bf1e      	ittt	ne
 80003b0:	2100      	movne	r1, #0
 80003b2:	2000      	movne	r0, #0
 80003b4:	bd30      	popne	{r4, r5, pc}
 80003b6:	ea5f 5c54 	movs.w	ip, r4, lsr #21
 80003ba:	d105      	bne.n	80003c8 <__adddf3+0x230>
 80003bc:	0040      	lsls	r0, r0, #1
 80003be:	4149      	adcs	r1, r1
 80003c0:	bf28      	it	cs
 80003c2:	f041 4100 	orrcs.w	r1, r1, #2147483648	; 0x80000000
 80003c6:	bd30      	pop	{r4, r5, pc}
 80003c8:	f514 0480 	adds.w	r4, r4, #4194304	; 0x400000
 80003cc:	bf3c      	itt	cc
 80003ce:	f501 1180 	addcc.w	r1, r1, #1048576	; 0x100000
 80003d2:	bd30      	popcc	{r4, r5, pc}
 80003d4:	f001 4500 	and.w	r5, r1, #2147483648	; 0x80000000
 80003d8:	f045 41fe 	orr.w	r1, r5, #2130706432	; 0x7f000000
 80003dc:	f441 0170 	orr.w	r1, r1, #15728640	; 0xf00000
 80003e0:	f04f 0000 	mov.w	r0, #0
 80003e4:	bd30      	pop	{r4, r5, pc}
 80003e6:	ea7f 5c64 	mvns.w	ip, r4, asr #21
 80003ea:	bf1a      	itte	ne
 80003ec:	4619      	movne	r1, r3
 80003ee:	4610      	movne	r0, r2
 80003f0:	ea7f 5c65 	mvnseq.w	ip, r5, asr #21
 80003f4:	bf1c      	itt	ne
 80003f6:	460b      	movne	r3, r1
 80003f8:	4602      	movne	r2, r0
 80003fa:	ea50 3401 	orrs.w	r4, r0, r1, lsl #12
 80003fe:	bf06      	itte	eq
 8000400:	ea52 3503 	orrseq.w	r5, r2, r3, lsl #12
 8000404:	ea91 0f03 	teqeq	r1, r3
 8000408:	f441 2100 	orrne.w	r1, r1, #524288	; 0x80000
 800040c:	bd30      	pop	{r4, r5, pc}
 800040e:	bf00      	nop

08000410 <__aeabi_ui2d>:
 8000410:	f090 0f00 	teq	r0, #0
 8000414:	bf04      	itt	eq
 8000416:	2100      	moveq	r1, #0
 8000418:	4770      	bxeq	lr
 800041a:	b530      	push	{r4, r5, lr}
 800041c:	f44f 6480 	mov.w	r4, #1024	; 0x400
 8000420:	f104 0432 	add.w	r4, r4, #50	; 0x32
 8000424:	f04f 0500 	mov.w	r5, #0
 8000428:	f04f 0100 	mov.w	r1, #0
 800042c:	e750      	b.n	80002d0 <__adddf3+0x138>
 800042e:	bf00      	nop

08000430 <__aeabi_i2d>:
 8000430:	f090 0f00 	teq	r0, #0
 8000434:	bf04      	itt	eq
 8000436:	2100      	moveq	r1, #0
 8000438:	4770      	bxeq	lr
 800043a:	b530      	push	{r4, r5, lr}
 800043c:	f44f 6480 	mov.w	r4, #1024	; 0x400
 8000440:	f104 0432 	add.w	r4, r4, #50	; 0x32
 8000444:	f010 4500 	ands.w	r5, r0, #2147483648	; 0x80000000
 8000448:	bf48      	it	mi
 800044a:	4240      	negmi	r0, r0
 800044c:	f04f 0100 	mov.w	r1, #0
 8000450:	e73e      	b.n	80002d0 <__adddf3+0x138>
 8000452:	bf00      	nop

08000454 <__aeabi_f2d>:
 8000454:	0042      	lsls	r2, r0, #1
 8000456:	ea4f 01e2 	mov.w	r1, r2, asr #3
 800045a:	ea4f 0131 	mov.w	r1, r1, rrx
 800045e:	ea4f 7002 	mov.w	r0, r2, lsl #28
 8000462:	bf1f      	itttt	ne
 8000464:	f012 437f 	andsne.w	r3, r2, #4278190080	; 0xff000000
 8000468:	f093 4f7f 	teqne	r3, #4278190080	; 0xff000000
 800046c:	f081 5160 	eorne.w	r1, r1, #939524096	; 0x38000000
 8000470:	4770      	bxne	lr
 8000472:	f032 427f 	bics.w	r2, r2, #4278190080	; 0xff000000
 8000476:	bf08      	it	eq
 8000478:	4770      	bxeq	lr
 800047a:	f093 4f7f 	teq	r3, #4278190080	; 0xff000000
 800047e:	bf04      	itt	eq
 8000480:	f441 2100 	orreq.w	r1, r1, #524288	; 0x80000
 8000484:	4770      	bxeq	lr
 8000486:	b530      	push	{r4, r5, lr}
 8000488:	f44f 7460 	mov.w	r4, #896	; 0x380
 800048c:	f001 4500 	and.w	r5, r1, #2147483648	; 0x80000000
 8000490:	f021 4100 	bic.w	r1, r1, #2147483648	; 0x80000000
 8000494:	e71c      	b.n	80002d0 <__adddf3+0x138>
 8000496:	bf00      	nop

08000498 <__aeabi_ul2d>:
 8000498:	ea50 0201 	orrs.w	r2, r0, r1
 800049c:	bf08      	it	eq
 800049e:	4770      	bxeq	lr
 80004a0:	b530      	push	{r4, r5, lr}
 80004a2:	f04f 0500 	mov.w	r5, #0
 80004a6:	e00a      	b.n	80004be <__aeabi_l2d+0x16>

080004a8 <__aeabi_l2d>:
 80004a8:	ea50 0201 	orrs.w	r2, r0, r1
 80004ac:	bf08      	it	eq
 80004ae:	4770      	bxeq	lr
 80004b0:	b530      	push	{r4, r5, lr}
 80004b2:	f011 4500 	ands.w	r5, r1, #2147483648	; 0x80000000
 80004b6:	d502      	bpl.n	80004be <__aeabi_l2d+0x16>
 80004b8:	4240      	negs	r0, r0
 80004ba:	eb61 0141 	sbc.w	r1, r1, r1, lsl #1
 80004be:	f44f 6480 	mov.w	r4, #1024	; 0x400
 80004c2:	f104 0432 	add.w	r4, r4, #50	; 0x32
 80004c6:	ea5f 5c91 	movs.w	ip, r1, lsr #22
 80004ca:	f43f aed8 	beq.w	800027e <__adddf3+0xe6>
 80004ce:	f04f 0203 	mov.w	r2, #3
 80004d2:	ea5f 0cdc 	movs.w	ip, ip, lsr #3
 80004d6:	bf18      	it	ne
 80004d8:	3203      	addne	r2, #3
 80004da:	ea5f 0cdc 	movs.w	ip, ip, lsr #3
 80004de:	bf18      	it	ne
 80004e0:	3203      	addne	r2, #3
 80004e2:	eb02 02dc 	add.w	r2, r2, ip, lsr #3
 80004e6:	f1c2 0320 	rsb	r3, r2, #32
 80004ea:	fa00 fc03 	lsl.w	ip, r0, r3
 80004ee:	fa20 f002 	lsr.w	r0, r0, r2
 80004f2:	fa01 fe03 	lsl.w	lr, r1, r3
 80004f6:	ea40 000e 	orr.w	r0, r0, lr
 80004fa:	fa21 f102 	lsr.w	r1, r1, r2
 80004fe:	4414      	add	r4, r2
 8000500:	e6bd      	b.n	800027e <__adddf3+0xe6>
 8000502:	bf00      	nop

08000504 <__aeabi_dmul>:
 8000504:	b570      	push	{r4, r5, r6, lr}
 8000506:	f04f 0cff 	mov.w	ip, #255	; 0xff
 800050a:	f44c 6ce0 	orr.w	ip, ip, #1792	; 0x700
 800050e:	ea1c 5411 	ands.w	r4, ip, r1, lsr #20
 8000512:	bf1d      	ittte	ne
 8000514:	ea1c 5513 	andsne.w	r5, ip, r3, lsr #20
 8000518:	ea94 0f0c 	teqne	r4, ip
 800051c:	ea95 0f0c 	teqne	r5, ip
 8000520:	f000 f8de 	bleq	80006e0 <__aeabi_dmul+0x1dc>
 8000524:	442c      	add	r4, r5
 8000526:	ea81 0603 	eor.w	r6, r1, r3
 800052a:	ea21 514c 	bic.w	r1, r1, ip, lsl #21
 800052e:	ea23 534c 	bic.w	r3, r3, ip, lsl #21
 8000532:	ea50 3501 	orrs.w	r5, r0, r1, lsl #12
 8000536:	bf18      	it	ne
 8000538:	ea52 3503 	orrsne.w	r5, r2, r3, lsl #12
 800053c:	f441 1180 	orr.w	r1, r1, #1048576	; 0x100000
 8000540:	f443 1380 	orr.w	r3, r3, #1048576	; 0x100000
 8000544:	d038      	beq.n	80005b8 <__aeabi_dmul+0xb4>
 8000546:	fba0 ce02 	umull	ip, lr, r0, r2
 800054a:	f04f 0500 	mov.w	r5, #0
 800054e:	fbe1 e502 	umlal	lr, r5, r1, r2
 8000552:	f006 4200 	and.w	r2, r6, #2147483648	; 0x80000000
 8000556:	fbe0 e503 	umlal	lr, r5, r0, r3
 800055a:	f04f 0600 	mov.w	r6, #0
 800055e:	fbe1 5603 	umlal	r5, r6, r1, r3
 8000562:	f09c 0f00 	teq	ip, #0
 8000566:	bf18      	it	ne
 8000568:	f04e 0e01 	orrne.w	lr, lr, #1
 800056c:	f1a4 04ff 	sub.w	r4, r4, #255	; 0xff
 8000570:	f5b6 7f00 	cmp.w	r6, #512	; 0x200
 8000574:	f564 7440 	sbc.w	r4, r4, #768	; 0x300
 8000578:	d204      	bcs.n	8000584 <__aeabi_dmul+0x80>
 800057a:	ea5f 0e4e 	movs.w	lr, lr, lsl #1
 800057e:	416d      	adcs	r5, r5
 8000580:	eb46 0606 	adc.w	r6, r6, r6
 8000584:	ea42 21c6 	orr.w	r1, r2, r6, lsl #11
 8000588:	ea41 5155 	orr.w	r1, r1, r5, lsr #21
 800058c:	ea4f 20c5 	mov.w	r0, r5, lsl #11
 8000590:	ea40 505e 	orr.w	r0, r0, lr, lsr #21
 8000594:	ea4f 2ece 	mov.w	lr, lr, lsl #11
 8000598:	f1b4 0cfd 	subs.w	ip, r4, #253	; 0xfd
 800059c:	bf88      	it	hi
 800059e:	f5bc 6fe0 	cmphi.w	ip, #1792	; 0x700
 80005a2:	d81e      	bhi.n	80005e2 <__aeabi_dmul+0xde>
 80005a4:	f1be 4f00 	cmp.w	lr, #2147483648	; 0x80000000
 80005a8:	bf08      	it	eq
 80005aa:	ea5f 0e50 	movseq.w	lr, r0, lsr #1
 80005ae:	f150 0000 	adcs.w	r0, r0, #0
 80005b2:	eb41 5104 	adc.w	r1, r1, r4, lsl #20
 80005b6:	bd70      	pop	{r4, r5, r6, pc}
 80005b8:	f006 4600 	and.w	r6, r6, #2147483648	; 0x80000000
 80005bc:	ea46 0101 	orr.w	r1, r6, r1
 80005c0:	ea40 0002 	orr.w	r0, r0, r2
 80005c4:	ea81 0103 	eor.w	r1, r1, r3
 80005c8:	ebb4 045c 	subs.w	r4, r4, ip, lsr #1
 80005cc:	bfc2      	ittt	gt
 80005ce:	ebd4 050c 	rsbsgt	r5, r4, ip
 80005d2:	ea41 5104 	orrgt.w	r1, r1, r4, lsl #20
 80005d6:	bd70      	popgt	{r4, r5, r6, pc}
 80005d8:	f441 1180 	orr.w	r1, r1, #1048576	; 0x100000
 80005dc:	f04f 0e00 	mov.w	lr, #0
 80005e0:	3c01      	subs	r4, #1
 80005e2:	f300 80ab 	bgt.w	800073c <__aeabi_dmul+0x238>
 80005e6:	f114 0f36 	cmn.w	r4, #54	; 0x36
 80005ea:	bfde      	ittt	le
 80005ec:	2000      	movle	r0, #0
 80005ee:	f001 4100 	andle.w	r1, r1, #2147483648	; 0x80000000
 80005f2:	bd70      	pople	{r4, r5, r6, pc}
 80005f4:	f1c4 0400 	rsb	r4, r4, #0
 80005f8:	3c20      	subs	r4, #32
 80005fa:	da35      	bge.n	8000668 <__aeabi_dmul+0x164>
 80005fc:	340c      	adds	r4, #12
 80005fe:	dc1b      	bgt.n	8000638 <__aeabi_dmul+0x134>
 8000600:	f104 0414 	add.w	r4, r4, #20
 8000604:	f1c4 0520 	rsb	r5, r4, #32
 8000608:	fa00 f305 	lsl.w	r3, r0, r5
 800060c:	fa20 f004 	lsr.w	r0, r0, r4
 8000610:	fa01 f205 	lsl.w	r2, r1, r5
 8000614:	ea40 0002 	orr.w	r0, r0, r2
 8000618:	f001 4200 	and.w	r2, r1, #2147483648	; 0x80000000
 800061c:	f021 4100 	bic.w	r1, r1, #2147483648	; 0x80000000
 8000620:	eb10 70d3 	adds.w	r0, r0, r3, lsr #31
 8000624:	fa21 f604 	lsr.w	r6, r1, r4
 8000628:	eb42 0106 	adc.w	r1, r2, r6
 800062c:	ea5e 0e43 	orrs.w	lr, lr, r3, lsl #1
 8000630:	bf08      	it	eq
 8000632:	ea20 70d3 	biceq.w	r0, r0, r3, lsr #31
 8000636:	bd70      	pop	{r4, r5, r6, pc}
 8000638:	f1c4 040c 	rsb	r4, r4, #12
 800063c:	f1c4 0520 	rsb	r5, r4, #32
 8000640:	fa00 f304 	lsl.w	r3, r0, r4
 8000644:	fa20 f005 	lsr.w	r0, r0, r5
 8000648:	fa01 f204 	lsl.w	r2, r1, r4
 800064c:	ea40 0002 	orr.w	r0, r0, r2
 8000650:	f001 4100 	and.w	r1, r1, #2147483648	; 0x80000000
 8000654:	eb10 70d3 	adds.w	r0, r0, r3, lsr #31
 8000658:	f141 0100 	adc.w	r1, r1, #0
 800065c:	ea5e 0e43 	orrs.w	lr, lr, r3, lsl #1
 8000660:	bf08      	it	eq
 8000662:	ea20 70d3 	biceq.w	r0, r0, r3, lsr #31
 8000666:	bd70      	pop	{r4, r5, r6, pc}
 8000668:	f1c4 0520 	rsb	r5, r4, #32
 800066c:	fa00 f205 	lsl.w	r2, r0, r5
 8000670:	ea4e 0e02 	orr.w	lr, lr, r2
 8000674:	fa20 f304 	lsr.w	r3, r0, r4
 8000678:	fa01 f205 	lsl.w	r2, r1, r5
 800067c:	ea43 0302 	orr.w	r3, r3, r2
 8000680:	fa21 f004 	lsr.w	r0, r1, r4
 8000684:	f001 4100 	and.w	r1, r1, #2147483648	; 0x80000000
 8000688:	fa21 f204 	lsr.w	r2, r1, r4
 800068c:	ea20 0002 	bic.w	r0, r0, r2
 8000690:	eb00 70d3 	add.w	r0, r0, r3, lsr #31
 8000694:	ea5e 0e43 	orrs.w	lr, lr, r3, lsl #1
 8000698:	bf08      	it	eq
 800069a:	ea20 70d3 	biceq.w	r0, r0, r3, lsr #31
 800069e:	bd70      	pop	{r4, r5, r6, pc}
 80006a0:	f094 0f00 	teq	r4, #0
 80006a4:	d10f      	bne.n	80006c6 <__aeabi_dmul+0x1c2>
 80006a6:	f001 4600 	and.w	r6, r1, #2147483648	; 0x80000000
 80006aa:	0040      	lsls	r0, r0, #1
 80006ac:	eb41 0101 	adc.w	r1, r1, r1
 80006b0:	f411 1f80 	tst.w	r1, #1048576	; 0x100000
 80006b4:	bf08      	it	eq
 80006b6:	3c01      	subeq	r4, #1
 80006b8:	d0f7      	beq.n	80006aa <__aeabi_dmul+0x1a6>
 80006ba:	ea41 0106 	orr.w	r1, r1, r6
 80006be:	f095 0f00 	teq	r5, #0
 80006c2:	bf18      	it	ne
 80006c4:	4770      	bxne	lr
 80006c6:	f003 4600 	and.w	r6, r3, #2147483648	; 0x80000000
 80006ca:	0052      	lsls	r2, r2, #1
 80006cc:	eb43 0303 	adc.w	r3, r3, r3
 80006d0:	f413 1f80 	tst.w	r3, #1048576	; 0x100000
 80006d4:	bf08      	it	eq
 80006d6:	3d01      	subeq	r5, #1
 80006d8:	d0f7      	beq.n	80006ca <__aeabi_dmul+0x1c6>
 80006da:	ea43 0306 	orr.w	r3, r3, r6
 80006de:	4770      	bx	lr
 80006e0:	ea94 0f0c 	teq	r4, ip
 80006e4:	ea0c 5513 	and.w	r5, ip, r3, lsr #20
 80006e8:	bf18      	it	ne
 80006ea:	ea95 0f0c 	teqne	r5, ip
 80006ee:	d00c      	beq.n	800070a <__aeabi_dmul+0x206>
 80006f0:	ea50 0641 	orrs.w	r6, r0, r1, lsl #1
 80006f4:	bf18      	it	ne
 80006f6:	ea52 0643 	orrsne.w	r6, r2, r3, lsl #1
 80006fa:	d1d1      	bne.n	80006a0 <__aeabi_dmul+0x19c>
 80006fc:	ea81 0103 	eor.w	r1, r1, r3
 8000700:	f001 4100 	and.w	r1, r1, #2147483648	; 0x80000000
 8000704:	f04f 0000 	mov.w	r0, #0
 8000708:	bd70      	pop	{r4, r5, r6, pc}
 800070a:	ea50 0641 	orrs.w	r6, r0, r1, lsl #1
 800070e:	bf06      	itte	eq
 8000710:	4610      	moveq	r0, r2
 8000712:	4619      	moveq	r1, r3
 8000714:	ea52 0643 	orrsne.w	r6, r2, r3, lsl #1
 8000718:	d019      	beq.n	800074e <__aeabi_dmul+0x24a>
 800071a:	ea94 0f0c 	teq	r4, ip
 800071e:	d102      	bne.n	8000726 <__aeabi_dmul+0x222>
 8000720:	ea50 3601 	orrs.w	r6, r0, r1, lsl #12
 8000724:	d113      	bne.n	800074e <__aeabi_dmul+0x24a>
 8000726:	ea95 0f0c 	teq	r5, ip
 800072a:	d105      	bne.n	8000738 <__aeabi_dmul+0x234>
 800072c:	ea52 3603 	orrs.w	r6, r2, r3, lsl #12
 8000730:	bf1c      	itt	ne
 8000732:	4610      	movne	r0, r2
 8000734:	4619      	movne	r1, r3
 8000736:	d10a      	bne.n	800074e <__aeabi_dmul+0x24a>
 8000738:	ea81 0103 	eor.w	r1, r1, r3
 800073c:	f001 4100 	and.w	r1, r1, #2147483648	; 0x80000000
 8000740:	f041 41fe 	orr.w	r1, r1, #2130706432	; 0x7f000000
 8000744:	f441 0170 	orr.w	r1, r1, #15728640	; 0xf00000
 8000748:	f04f 0000 	mov.w	r0, #0
 800074c:	bd70      	pop	{r4, r5, r6, pc}
 800074e:	f041 41fe 	orr.w	r1, r1, #2130706432	; 0x7f000000
 8000752:	f441 0178 	orr.w	r1, r1, #16252928	; 0xf80000
 8000756:	bd70      	pop	{r4, r5, r6, pc}

08000758 <__aeabi_ddiv>:
 8000758:	b570      	push	{r4, r5, r6, lr}
 800075a:	f04f 0cff 	mov.w	ip, #255	; 0xff
 800075e:	f44c 6ce0 	orr.w	ip, ip, #1792	; 0x700
 8000762:	ea1c 5411 	ands.w	r4, ip, r1, lsr #20
 8000766:	bf1d      	ittte	ne
 8000768:	ea1c 5513 	andsne.w	r5, ip, r3, lsr #20
 800076c:	ea94 0f0c 	teqne	r4, ip
 8000770:	ea95 0f0c 	teqne	r5, ip
 8000774:	f000 f8a7 	bleq	80008c6 <__aeabi_ddiv+0x16e>
 8000778:	eba4 0405 	sub.w	r4, r4, r5
 800077c:	ea81 0e03 	eor.w	lr, r1, r3
 8000780:	ea52 3503 	orrs.w	r5, r2, r3, lsl #12
 8000784:	ea4f 3101 	mov.w	r1, r1, lsl #12
 8000788:	f000 8088 	beq.w	800089c <__aeabi_ddiv+0x144>
 800078c:	ea4f 3303 	mov.w	r3, r3, lsl #12
 8000790:	f04f 5580 	mov.w	r5, #268435456	; 0x10000000
 8000794:	ea45 1313 	orr.w	r3, r5, r3, lsr #4
 8000798:	ea43 6312 	orr.w	r3, r3, r2, lsr #24
 800079c:	ea4f 2202 	mov.w	r2, r2, lsl #8
 80007a0:	ea45 1511 	orr.w	r5, r5, r1, lsr #4
 80007a4:	ea45 6510 	orr.w	r5, r5, r0, lsr #24
 80007a8:	ea4f 2600 	mov.w	r6, r0, lsl #8
 80007ac:	f00e 4100 	and.w	r1, lr, #2147483648	; 0x80000000
 80007b0:	429d      	cmp	r5, r3
 80007b2:	bf08      	it	eq
 80007b4:	4296      	cmpeq	r6, r2
 80007b6:	f144 04fd 	adc.w	r4, r4, #253	; 0xfd
 80007ba:	f504 7440 	add.w	r4, r4, #768	; 0x300
 80007be:	d202      	bcs.n	80007c6 <__aeabi_ddiv+0x6e>
 80007c0:	085b      	lsrs	r3, r3, #1
 80007c2:	ea4f 0232 	mov.w	r2, r2, rrx
 80007c6:	1ab6      	subs	r6, r6, r2
 80007c8:	eb65 0503 	sbc.w	r5, r5, r3
 80007cc:	085b      	lsrs	r3, r3, #1
 80007ce:	ea4f 0232 	mov.w	r2, r2, rrx
 80007d2:	f44f 1080 	mov.w	r0, #1048576	; 0x100000
 80007d6:	f44f 2c00 	mov.w	ip, #524288	; 0x80000
 80007da:	ebb6 0e02 	subs.w	lr, r6, r2
 80007de:	eb75 0e03 	sbcs.w	lr, r5, r3
 80007e2:	bf22      	ittt	cs
 80007e4:	1ab6      	subcs	r6, r6, r2
 80007e6:	4675      	movcs	r5, lr
 80007e8:	ea40 000c 	orrcs.w	r0, r0, ip
 80007ec:	085b      	lsrs	r3, r3, #1
 80007ee:	ea4f 0232 	mov.w	r2, r2, rrx
 80007f2:	ebb6 0e02 	subs.w	lr, r6, r2
 80007f6:	eb75 0e03 	sbcs.w	lr, r5, r3
 80007fa:	bf22      	ittt	cs
 80007fc:	1ab6      	subcs	r6, r6, r2
 80007fe:	4675      	movcs	r5, lr
 8000800:	ea40 005c 	orrcs.w	r0, r0, ip, lsr #1
 8000804:	085b      	lsrs	r3, r3, #1
 8000806:	ea4f 0232 	mov.w	r2, r2, rrx
 800080a:	ebb6 0e02 	subs.w	lr, r6, r2
 800080e:	eb75 0e03 	sbcs.w	lr, r5, r3
 8000812:	bf22      	ittt	cs
 8000814:	1ab6      	subcs	r6, r6, r2
 8000816:	4675      	movcs	r5, lr
 8000818:	ea40 009c 	orrcs.w	r0, r0, ip, lsr #2
 800081c:	085b      	lsrs	r3, r3, #1
 800081e:	ea4f 0232 	mov.w	r2, r2, rrx
 8000822:	ebb6 0e02 	subs.w	lr, r6, r2
 8000826:	eb75 0e03 	sbcs.w	lr, r5, r3
 800082a:	bf22      	ittt	cs
 800082c:	1ab6      	subcs	r6, r6, r2
 800082e:	4675      	movcs	r5, lr
 8000830:	ea40 00dc 	orrcs.w	r0, r0, ip, lsr #3
 8000834:	ea55 0e06 	orrs.w	lr, r5, r6
 8000838:	d018      	beq.n	800086c <__aeabi_ddiv+0x114>
 800083a:	ea4f 1505 	mov.w	r5, r5, lsl #4
 800083e:	ea45 7516 	orr.w	r5, r5, r6, lsr #28
 8000842:	ea4f 1606 	mov.w	r6, r6, lsl #4
 8000846:	ea4f 03c3 	mov.w	r3, r3, lsl #3
 800084a:	ea43 7352 	orr.w	r3, r3, r2, lsr #29
 800084e:	ea4f 02c2 	mov.w	r2, r2, lsl #3
 8000852:	ea5f 1c1c 	movs.w	ip, ip, lsr #4
 8000856:	d1c0      	bne.n	80007da <__aeabi_ddiv+0x82>
 8000858:	f411 1f80 	tst.w	r1, #1048576	; 0x100000
 800085c:	d10b      	bne.n	8000876 <__aeabi_ddiv+0x11e>
 800085e:	ea41 0100 	orr.w	r1, r1, r0
 8000862:	f04f 0000 	mov.w	r0, #0
 8000866:	f04f 4c00 	mov.w	ip, #2147483648	; 0x80000000
 800086a:	e7b6      	b.n	80007da <__aeabi_ddiv+0x82>
 800086c:	f411 1f80 	tst.w	r1, #1048576	; 0x100000
 8000870:	bf04      	itt	eq
 8000872:	4301      	orreq	r1, r0
 8000874:	2000      	moveq	r0, #0
 8000876:	f1b4 0cfd 	subs.w	ip, r4, #253	; 0xfd
 800087a:	bf88      	it	hi
 800087c:	f5bc 6fe0 	cmphi.w	ip, #1792	; 0x700
 8000880:	f63f aeaf 	bhi.w	80005e2 <__aeabi_dmul+0xde>
 8000884:	ebb5 0c03 	subs.w	ip, r5, r3
 8000888:	bf04      	itt	eq
 800088a:	ebb6 0c02 	subseq.w	ip, r6, r2
 800088e:	ea5f 0c50 	movseq.w	ip, r0, lsr #1
 8000892:	f150 0000 	adcs.w	r0, r0, #0
 8000896:	eb41 5104 	adc.w	r1, r1, r4, lsl #20
 800089a:	bd70      	pop	{r4, r5, r6, pc}
 800089c:	f00e 4e00 	and.w	lr, lr, #2147483648	; 0x80000000
 80008a0:	ea4e 3111 	orr.w	r1, lr, r1, lsr #12
 80008a4:	eb14 045c 	adds.w	r4, r4, ip, lsr #1
 80008a8:	bfc2      	ittt	gt
 80008aa:	ebd4 050c 	rsbsgt	r5, r4, ip
 80008ae:	ea41 5104 	orrgt.w	r1, r1, r4, lsl #20
 80008b2:	bd70      	popgt	{r4, r5, r6, pc}
 80008b4:	f441 1180 	orr.w	r1, r1, #1048576	; 0x100000
 80008b8:	f04f 0e00 	mov.w	lr, #0
 80008bc:	3c01      	subs	r4, #1
 80008be:	e690      	b.n	80005e2 <__aeabi_dmul+0xde>
 80008c0:	ea45 0e06 	orr.w	lr, r5, r6
 80008c4:	e68d      	b.n	80005e2 <__aeabi_dmul+0xde>
 80008c6:	ea0c 5513 	and.w	r5, ip, r3, lsr #20
 80008ca:	ea94 0f0c 	teq	r4, ip
 80008ce:	bf08      	it	eq
 80008d0:	ea95 0f0c 	teqeq	r5, ip
 80008d4:	f43f af3b 	beq.w	800074e <__aeabi_dmul+0x24a>
 80008d8:	ea94 0f0c 	teq	r4, ip
 80008dc:	d10a      	bne.n	80008f4 <__aeabi_ddiv+0x19c>
 80008de:	ea50 3401 	orrs.w	r4, r0, r1, lsl #12
 80008e2:	f47f af34 	bne.w	800074e <__aeabi_dmul+0x24a>
 80008e6:	ea95 0f0c 	teq	r5, ip
 80008ea:	f47f af25 	bne.w	8000738 <__aeabi_dmul+0x234>
 80008ee:	4610      	mov	r0, r2
 80008f0:	4619      	mov	r1, r3
 80008f2:	e72c      	b.n	800074e <__aeabi_dmul+0x24a>
 80008f4:	ea95 0f0c 	teq	r5, ip
 80008f8:	d106      	bne.n	8000908 <__aeabi_ddiv+0x1b0>
 80008fa:	ea52 3503 	orrs.w	r5, r2, r3, lsl #12
 80008fe:	f43f aefd 	beq.w	80006fc <__aeabi_dmul+0x1f8>
 8000902:	4610      	mov	r0, r2
 8000904:	4619      	mov	r1, r3
 8000906:	e722      	b.n	800074e <__aeabi_dmul+0x24a>
 8000908:	ea50 0641 	orrs.w	r6, r0, r1, lsl #1
 800090c:	bf18      	it	ne
 800090e:	ea52 0643 	orrsne.w	r6, r2, r3, lsl #1
 8000912:	f47f aec5 	bne.w	80006a0 <__aeabi_dmul+0x19c>
 8000916:	ea50 0441 	orrs.w	r4, r0, r1, lsl #1
 800091a:	f47f af0d 	bne.w	8000738 <__aeabi_dmul+0x234>
 800091e:	ea52 0543 	orrs.w	r5, r2, r3, lsl #1
 8000922:	f47f aeeb 	bne.w	80006fc <__aeabi_dmul+0x1f8>
 8000926:	e712      	b.n	800074e <__aeabi_dmul+0x24a>

08000928 <__aeabi_d2f>:
 8000928:	ea4f 0241 	mov.w	r2, r1, lsl #1
 800092c:	f1b2 43e0 	subs.w	r3, r2, #1879048192	; 0x70000000
 8000930:	bf24      	itt	cs
 8000932:	f5b3 1c00 	subscs.w	ip, r3, #2097152	; 0x200000
 8000936:	f1dc 5cfe 	rsbscs	ip, ip, #532676608	; 0x1fc00000
 800093a:	d90d      	bls.n	8000958 <__aeabi_d2f+0x30>
 800093c:	f001 4c00 	and.w	ip, r1, #2147483648	; 0x80000000
 8000940:	ea4f 02c0 	mov.w	r2, r0, lsl #3
 8000944:	ea4c 7050 	orr.w	r0, ip, r0, lsr #29
 8000948:	f1b2 4f00 	cmp.w	r2, #2147483648	; 0x80000000
 800094c:	eb40 0083 	adc.w	r0, r0, r3, lsl #2
 8000950:	bf08      	it	eq
 8000952:	f020 0001 	biceq.w	r0, r0, #1
 8000956:	4770      	bx	lr
 8000958:	f011 4f80 	tst.w	r1, #1073741824	; 0x40000000
 800095c:	d121      	bne.n	80009a2 <__aeabi_d2f+0x7a>
 800095e:	f113 7238 	adds.w	r2, r3, #48234496	; 0x2e00000
 8000962:	bfbc      	itt	lt
 8000964:	f001 4000 	andlt.w	r0, r1, #2147483648	; 0x80000000
 8000968:	4770      	bxlt	lr
 800096a:	f441 1180 	orr.w	r1, r1, #1048576	; 0x100000
 800096e:	ea4f 5252 	mov.w	r2, r2, lsr #21
 8000972:	f1c2 0218 	rsb	r2, r2, #24
 8000976:	f1c2 0c20 	rsb	ip, r2, #32
 800097a:	fa10 f30c 	lsls.w	r3, r0, ip
 800097e:	fa20 f002 	lsr.w	r0, r0, r2
 8000982:	bf18      	it	ne
 8000984:	f040 0001 	orrne.w	r0, r0, #1
 8000988:	ea4f 23c1 	mov.w	r3, r1, lsl #11
 800098c:	ea4f 23d3 	mov.w	r3, r3, lsr #11
 8000990:	fa03 fc0c 	lsl.w	ip, r3, ip
 8000994:	ea40 000c 	orr.w	r0, r0, ip
 8000998:	fa23 f302 	lsr.w	r3, r3, r2
 800099c:	ea4f 0343 	mov.w	r3, r3, lsl #1
 80009a0:	e7cc      	b.n	800093c <__aeabi_d2f+0x14>
 80009a2:	ea7f 5362 	mvns.w	r3, r2, asr #21
 80009a6:	d107      	bne.n	80009b8 <__aeabi_d2f+0x90>
 80009a8:	ea50 3301 	orrs.w	r3, r0, r1, lsl #12
 80009ac:	bf1e      	ittt	ne
 80009ae:	f04f 40fe 	movne.w	r0, #2130706432	; 0x7f000000
 80009b2:	f440 0040 	orrne.w	r0, r0, #12582912	; 0xc00000
 80009b6:	4770      	bxne	lr
 80009b8:	f001 4000 	and.w	r0, r1, #2147483648	; 0x80000000
 80009bc:	f040 40fe 	orr.w	r0, r0, #2130706432	; 0x7f000000
 80009c0:	f440 0000 	orr.w	r0, r0, #8388608	; 0x800000
 80009c4:	4770      	bx	lr
 80009c6:	bf00      	nop

080009c8 <__aeabi_uldivmod>:
 80009c8:	b953      	cbnz	r3, 80009e0 <__aeabi_uldivmod+0x18>
 80009ca:	b94a      	cbnz	r2, 80009e0 <__aeabi_uldivmod+0x18>
 80009cc:	2900      	cmp	r1, #0
 80009ce:	bf08      	it	eq
 80009d0:	2800      	cmpeq	r0, #0
 80009d2:	bf1c      	itt	ne
 80009d4:	f04f 31ff 	movne.w	r1, #4294967295
 80009d8:	f04f 30ff 	movne.w	r0, #4294967295
 80009dc:	f000 b96e 	b.w	8000cbc <__aeabi_idiv0>
 80009e0:	f1ad 0c08 	sub.w	ip, sp, #8
 80009e4:	e96d ce04 	strd	ip, lr, [sp, #-16]!
 80009e8:	f000 f806 	bl	80009f8 <__udivmoddi4>
 80009ec:	f8dd e004 	ldr.w	lr, [sp, #4]
 80009f0:	e9dd 2302 	ldrd	r2, r3, [sp, #8]
 80009f4:	b004      	add	sp, #16
 80009f6:	4770      	bx	lr

080009f8 <__udivmoddi4>:
 80009f8:	e92d 47f0 	stmdb	sp!, {r4, r5, r6, r7, r8, r9, sl, lr}
 80009fc:	9e08      	ldr	r6, [sp, #32]
 80009fe:	460d      	mov	r5, r1
 8000a00:	4604      	mov	r4, r0
 8000a02:	468e      	mov	lr, r1
 8000a04:	2b00      	cmp	r3, #0
 8000a06:	f040 8083 	bne.w	8000b10 <__udivmoddi4+0x118>
 8000a0a:	428a      	cmp	r2, r1
 8000a0c:	4617      	mov	r7, r2
 8000a0e:	d947      	bls.n	8000aa0 <__udivmoddi4+0xa8>
 8000a10:	fab2 f382 	clz	r3, r2
 8000a14:	b14b      	cbz	r3, 8000a2a <__udivmoddi4+0x32>
 8000a16:	f1c3 0120 	rsb	r1, r3, #32
 8000a1a:	fa05 fe03 	lsl.w	lr, r5, r3
 8000a1e:	fa20 f101 	lsr.w	r1, r0, r1
 8000a22:	409f      	lsls	r7, r3
 8000a24:	ea41 0e0e 	orr.w	lr, r1, lr
 8000a28:	409c      	lsls	r4, r3
 8000a2a:	ea4f 4817 	mov.w	r8, r7, lsr #16
 8000a2e:	fbbe fcf8 	udiv	ip, lr, r8
 8000a32:	fa1f f987 	uxth.w	r9, r7
 8000a36:	fb08 e21c 	mls	r2, r8, ip, lr
 8000a3a:	fb0c f009 	mul.w	r0, ip, r9
 8000a3e:	0c21      	lsrs	r1, r4, #16
 8000a40:	ea41 4202 	orr.w	r2, r1, r2, lsl #16
 8000a44:	4290      	cmp	r0, r2
 8000a46:	d90a      	bls.n	8000a5e <__udivmoddi4+0x66>
 8000a48:	18ba      	adds	r2, r7, r2
 8000a4a:	f10c 31ff 	add.w	r1, ip, #4294967295
 8000a4e:	f080 8118 	bcs.w	8000c82 <__udivmoddi4+0x28a>
 8000a52:	4290      	cmp	r0, r2
 8000a54:	f240 8115 	bls.w	8000c82 <__udivmoddi4+0x28a>
 8000a58:	f1ac 0c02 	sub.w	ip, ip, #2
 8000a5c:	443a      	add	r2, r7
 8000a5e:	1a12      	subs	r2, r2, r0
 8000a60:	fbb2 f0f8 	udiv	r0, r2, r8
 8000a64:	fb08 2210 	mls	r2, r8, r0, r2
 8000a68:	fb00 f109 	mul.w	r1, r0, r9
 8000a6c:	b2a4      	uxth	r4, r4
 8000a6e:	ea44 4402 	orr.w	r4, r4, r2, lsl #16
 8000a72:	42a1      	cmp	r1, r4
 8000a74:	d909      	bls.n	8000a8a <__udivmoddi4+0x92>
 8000a76:	193c      	adds	r4, r7, r4
 8000a78:	f100 32ff 	add.w	r2, r0, #4294967295
 8000a7c:	f080 8103 	bcs.w	8000c86 <__udivmoddi4+0x28e>
 8000a80:	42a1      	cmp	r1, r4
 8000a82:	f240 8100 	bls.w	8000c86 <__udivmoddi4+0x28e>
 8000a86:	3802      	subs	r0, #2
 8000a88:	443c      	add	r4, r7
 8000a8a:	1a64      	subs	r4, r4, r1
 8000a8c:	2100      	movs	r1, #0
 8000a8e:	ea40 400c 	orr.w	r0, r0, ip, lsl #16
 8000a92:	b11e      	cbz	r6, 8000a9c <__udivmoddi4+0xa4>
 8000a94:	2200      	movs	r2, #0
 8000a96:	40dc      	lsrs	r4, r3
 8000a98:	e9c6 4200 	strd	r4, r2, [r6]
 8000a9c:	e8bd 87f0 	ldmia.w	sp!, {r4, r5, r6, r7, r8, r9, sl, pc}
 8000aa0:	b902      	cbnz	r2, 8000aa4 <__udivmoddi4+0xac>
 8000aa2:	deff      	udf	#255	; 0xff
 8000aa4:	fab2 f382 	clz	r3, r2
 8000aa8:	2b00      	cmp	r3, #0
 8000aaa:	d14f      	bne.n	8000b4c <__udivmoddi4+0x154>
 8000aac:	1a8d      	subs	r5, r1, r2
 8000aae:	2101      	movs	r1, #1
 8000ab0:	ea4f 4e12 	mov.w	lr, r2, lsr #16
 8000ab4:	fa1f f882 	uxth.w	r8, r2
 8000ab8:	fbb5 fcfe 	udiv	ip, r5, lr
 8000abc:	fb0e 551c 	mls	r5, lr, ip, r5
 8000ac0:	fb08 f00c 	mul.w	r0, r8, ip
 8000ac4:	0c22      	lsrs	r2, r4, #16
 8000ac6:	ea42 4505 	orr.w	r5, r2, r5, lsl #16
 8000aca:	42a8      	cmp	r0, r5
 8000acc:	d907      	bls.n	8000ade <__udivmoddi4+0xe6>
 8000ace:	197d      	adds	r5, r7, r5
 8000ad0:	f10c 32ff 	add.w	r2, ip, #4294967295
 8000ad4:	d202      	bcs.n	8000adc <__udivmoddi4+0xe4>
 8000ad6:	42a8      	cmp	r0, r5
 8000ad8:	f200 80e9 	bhi.w	8000cae <__udivmoddi4+0x2b6>
 8000adc:	4694      	mov	ip, r2
 8000ade:	1a2d      	subs	r5, r5, r0
 8000ae0:	fbb5 f0fe 	udiv	r0, r5, lr
 8000ae4:	fb0e 5510 	mls	r5, lr, r0, r5
 8000ae8:	fb08 f800 	mul.w	r8, r8, r0
 8000aec:	b2a4      	uxth	r4, r4
 8000aee:	ea44 4405 	orr.w	r4, r4, r5, lsl #16
 8000af2:	45a0      	cmp	r8, r4
 8000af4:	d907      	bls.n	8000b06 <__udivmoddi4+0x10e>
 8000af6:	193c      	adds	r4, r7, r4
 8000af8:	f100 32ff 	add.w	r2, r0, #4294967295
 8000afc:	d202      	bcs.n	8000b04 <__udivmoddi4+0x10c>
 8000afe:	45a0      	cmp	r8, r4
 8000b00:	f200 80d9 	bhi.w	8000cb6 <__udivmoddi4+0x2be>
 8000b04:	4610      	mov	r0, r2
 8000b06:	eba4 0408 	sub.w	r4, r4, r8
 8000b0a:	ea40 400c 	orr.w	r0, r0, ip, lsl #16
 8000b0e:	e7c0      	b.n	8000a92 <__udivmoddi4+0x9a>
 8000b10:	428b      	cmp	r3, r1
 8000b12:	d908      	bls.n	8000b26 <__udivmoddi4+0x12e>
 8000b14:	2e00      	cmp	r6, #0
 8000b16:	f000 80b1 	beq.w	8000c7c <__udivmoddi4+0x284>
 8000b1a:	2100      	movs	r1, #0
 8000b1c:	e9c6 0500 	strd	r0, r5, [r6]
 8000b20:	4608      	mov	r0, r1
 8000b22:	e8bd 87f0 	ldmia.w	sp!, {r4, r5, r6, r7, r8, r9, sl, pc}
 8000b26:	fab3 f183 	clz	r1, r3
 8000b2a:	2900      	cmp	r1, #0
 8000b2c:	d14b      	bne.n	8000bc6 <__udivmoddi4+0x1ce>
 8000b2e:	42ab      	cmp	r3, r5
 8000b30:	d302      	bcc.n	8000b38 <__udivmoddi4+0x140>
 8000b32:	4282      	cmp	r2, r0
 8000b34:	f200 80b9 	bhi.w	8000caa <__udivmoddi4+0x2b2>
 8000b38:	1a84      	subs	r4, r0, r2
 8000b3a:	eb65 0303 	sbc.w	r3, r5, r3
 8000b3e:	2001      	movs	r0, #1
 8000b40:	469e      	mov	lr, r3
 8000b42:	2e00      	cmp	r6, #0
 8000b44:	d0aa      	beq.n	8000a9c <__udivmoddi4+0xa4>
 8000b46:	e9c6 4e00 	strd	r4, lr, [r6]
 8000b4a:	e7a7      	b.n	8000a9c <__udivmoddi4+0xa4>
 8000b4c:	409f      	lsls	r7, r3
 8000b4e:	f1c3 0220 	rsb	r2, r3, #32
 8000b52:	40d1      	lsrs	r1, r2
 8000b54:	ea4f 4e17 	mov.w	lr, r7, lsr #16
 8000b58:	fbb1 f0fe 	udiv	r0, r1, lr
 8000b5c:	fa1f f887 	uxth.w	r8, r7
 8000b60:	fb0e 1110 	mls	r1, lr, r0, r1
 8000b64:	fa24 f202 	lsr.w	r2, r4, r2
 8000b68:	409d      	lsls	r5, r3
 8000b6a:	fb00 fc08 	mul.w	ip, r0, r8
 8000b6e:	432a      	orrs	r2, r5
 8000b70:	0c15      	lsrs	r5, r2, #16
 8000b72:	ea45 4501 	orr.w	r5, r5, r1, lsl #16
 8000b76:	45ac      	cmp	ip, r5
 8000b78:	fa04 f403 	lsl.w	r4, r4, r3
 8000b7c:	d909      	bls.n	8000b92 <__udivmoddi4+0x19a>
 8000b7e:	197d      	adds	r5, r7, r5
 8000b80:	f100 31ff 	add.w	r1, r0, #4294967295
 8000b84:	f080 808f 	bcs.w	8000ca6 <__udivmoddi4+0x2ae>
 8000b88:	45ac      	cmp	ip, r5
 8000b8a:	f240 808c 	bls.w	8000ca6 <__udivmoddi4+0x2ae>
 8000b8e:	3802      	subs	r0, #2
 8000b90:	443d      	add	r5, r7
 8000b92:	eba5 050c 	sub.w	r5, r5, ip
 8000b96:	fbb5 f1fe 	udiv	r1, r5, lr
 8000b9a:	fb0e 5c11 	mls	ip, lr, r1, r5
 8000b9e:	fb01 f908 	mul.w	r9, r1, r8
 8000ba2:	b295      	uxth	r5, r2
 8000ba4:	ea45 450c 	orr.w	r5, r5, ip, lsl #16
 8000ba8:	45a9      	cmp	r9, r5
 8000baa:	d907      	bls.n	8000bbc <__udivmoddi4+0x1c4>
 8000bac:	197d      	adds	r5, r7, r5
 8000bae:	f101 32ff 	add.w	r2, r1, #4294967295
 8000bb2:	d274      	bcs.n	8000c9e <__udivmoddi4+0x2a6>
 8000bb4:	45a9      	cmp	r9, r5
 8000bb6:	d972      	bls.n	8000c9e <__udivmoddi4+0x2a6>
 8000bb8:	3902      	subs	r1, #2
 8000bba:	443d      	add	r5, r7
 8000bbc:	eba5 0509 	sub.w	r5, r5, r9
 8000bc0:	ea41 4100 	orr.w	r1, r1, r0, lsl #16
 8000bc4:	e778      	b.n	8000ab8 <__udivmoddi4+0xc0>
 8000bc6:	f1c1 0720 	rsb	r7, r1, #32
 8000bca:	408b      	lsls	r3, r1
 8000bcc:	fa22 fc07 	lsr.w	ip, r2, r7
 8000bd0:	ea4c 0c03 	orr.w	ip, ip, r3
 8000bd4:	fa25 f407 	lsr.w	r4, r5, r7
 8000bd8:	ea4f 4e1c 	mov.w	lr, ip, lsr #16
 8000bdc:	fbb4 f9fe 	udiv	r9, r4, lr
 8000be0:	fa1f f88c 	uxth.w	r8, ip
 8000be4:	fb0e 4419 	mls	r4, lr, r9, r4
 8000be8:	fa20 f307 	lsr.w	r3, r0, r7
 8000bec:	fb09 fa08 	mul.w	sl, r9, r8
 8000bf0:	408d      	lsls	r5, r1
 8000bf2:	431d      	orrs	r5, r3
 8000bf4:	0c2b      	lsrs	r3, r5, #16
 8000bf6:	ea43 4404 	orr.w	r4, r3, r4, lsl #16
 8000bfa:	45a2      	cmp	sl, r4
 8000bfc:	fa02 f201 	lsl.w	r2, r2, r1
 8000c00:	fa00 f301 	lsl.w	r3, r0, r1
 8000c04:	d909      	bls.n	8000c1a <__udivmoddi4+0x222>
 8000c06:	eb1c 0404 	adds.w	r4, ip, r4
 8000c0a:	f109 30ff 	add.w	r0, r9, #4294967295
 8000c0e:	d248      	bcs.n	8000ca2 <__udivmoddi4+0x2aa>
 8000c10:	45a2      	cmp	sl, r4
 8000c12:	d946      	bls.n	8000ca2 <__udivmoddi4+0x2aa>
 8000c14:	f1a9 0902 	sub.w	r9, r9, #2
 8000c18:	4464      	add	r4, ip
 8000c1a:	eba4 040a 	sub.w	r4, r4, sl
 8000c1e:	fbb4 f0fe 	udiv	r0, r4, lr
 8000c22:	fb0e 4410 	mls	r4, lr, r0, r4
 8000c26:	fb00 fa08 	mul.w	sl, r0, r8
 8000c2a:	b2ad      	uxth	r5, r5
 8000c2c:	ea45 4404 	orr.w	r4, r5, r4, lsl #16
 8000c30:	45a2      	cmp	sl, r4
 8000c32:	d908      	bls.n	8000c46 <__udivmoddi4+0x24e>
 8000c34:	eb1c 0404 	adds.w	r4, ip, r4
 8000c38:	f100 35ff 	add.w	r5, r0, #4294967295
 8000c3c:	d22d      	bcs.n	8000c9a <__udivmoddi4+0x2a2>
 8000c3e:	45a2      	cmp	sl, r4
 8000c40:	d92b      	bls.n	8000c9a <__udivmoddi4+0x2a2>
 8000c42:	3802      	subs	r0, #2
 8000c44:	4464      	add	r4, ip
 8000c46:	ea40 4009 	orr.w	r0, r0, r9, lsl #16
 8000c4a:	fba0 8902 	umull	r8, r9, r0, r2
 8000c4e:	eba4 040a 	sub.w	r4, r4, sl
 8000c52:	454c      	cmp	r4, r9
 8000c54:	46c6      	mov	lr, r8
 8000c56:	464d      	mov	r5, r9
 8000c58:	d319      	bcc.n	8000c8e <__udivmoddi4+0x296>
 8000c5a:	d016      	beq.n	8000c8a <__udivmoddi4+0x292>
 8000c5c:	b15e      	cbz	r6, 8000c76 <__udivmoddi4+0x27e>
 8000c5e:	ebb3 020e 	subs.w	r2, r3, lr
 8000c62:	eb64 0405 	sbc.w	r4, r4, r5
 8000c66:	fa04 f707 	lsl.w	r7, r4, r7
 8000c6a:	fa22 f301 	lsr.w	r3, r2, r1
 8000c6e:	431f      	orrs	r7, r3
 8000c70:	40cc      	lsrs	r4, r1
 8000c72:	e9c6 7400 	strd	r7, r4, [r6]
 8000c76:	2100      	movs	r1, #0
 8000c78:	e8bd 87f0 	ldmia.w	sp!, {r4, r5, r6, r7, r8, r9, sl, pc}
 8000c7c:	4631      	mov	r1, r6
 8000c7e:	4630      	mov	r0, r6
 8000c80:	e70c      	b.n	8000a9c <__udivmoddi4+0xa4>
 8000c82:	468c      	mov	ip, r1
 8000c84:	e6eb      	b.n	8000a5e <__udivmoddi4+0x66>
 8000c86:	4610      	mov	r0, r2
 8000c88:	e6ff      	b.n	8000a8a <__udivmoddi4+0x92>
 8000c8a:	4543      	cmp	r3, r8
 8000c8c:	d2e6      	bcs.n	8000c5c <__udivmoddi4+0x264>
 8000c8e:	ebb8 0e02 	subs.w	lr, r8, r2
 8000c92:	eb69 050c 	sbc.w	r5, r9, ip
 8000c96:	3801      	subs	r0, #1
 8000c98:	e7e0      	b.n	8000c5c <__udivmoddi4+0x264>
 8000c9a:	4628      	mov	r0, r5
 8000c9c:	e7d3      	b.n	8000c46 <__udivmoddi4+0x24e>
 8000c9e:	4611      	mov	r1, r2
 8000ca0:	e78c      	b.n	8000bbc <__udivmoddi4+0x1c4>
 8000ca2:	4681      	mov	r9, r0
 8000ca4:	e7b9      	b.n	8000c1a <__udivmoddi4+0x222>
 8000ca6:	4608      	mov	r0, r1
 8000ca8:	e773      	b.n	8000b92 <__udivmoddi4+0x19a>
 8000caa:	4608      	mov	r0, r1
 8000cac:	e749      	b.n	8000b42 <__udivmoddi4+0x14a>
 8000cae:	f1ac 0c02 	sub.w	ip, ip, #2
 8000cb2:	443d      	add	r5, r7
 8000cb4:	e713      	b.n	8000ade <__udivmoddi4+0xe6>
 8000cb6:	3802      	subs	r0, #2
 8000cb8:	443c      	add	r4, r7
 8000cba:	e724      	b.n	8000b06 <__udivmoddi4+0x10e>

08000cbc <__aeabi_idiv0>:
 8000cbc:	4770      	bx	lr
 8000cbe:	bf00      	nop

08000cc0 <DHT22_Init>:
 8000cc0:	2300      	movs	r3, #0
 8000cc2:	6001      	str	r1, [r0, #0]
 8000cc4:	8082      	strh	r2, [r0, #4]
 8000cc6:	6083      	str	r3, [r0, #8]
 8000cc8:	60c3      	str	r3, [r0, #12]
 8000cca:	4770      	bx	lr

08000ccc <DHT22_Set_Output>:
 8000ccc:	b57f      	push	{r0, r1, r2, r3, r4, r5, r6, lr}
 8000cce:	8882      	ldrh	r2, [r0, #4]
 8000cd0:	2300      	movs	r3, #0
 8000cd2:	9201      	str	r2, [sp, #4]
 8000cd4:	2201      	movs	r2, #1
 8000cd6:	6800      	ldr	r0, [r0, #0]
 8000cd8:	a901      	add	r1, sp, #4
 8000cda:	e9cd 2202 	strd	r2, r2, [sp, #8]
 8000cde:	9305      	str	r3, [sp, #20]
 8000ce0:	9304      	str	r3, [sp, #16]
 8000ce2:	f001 f849 	bl	8001d78 <HAL_GPIO_Init>
 8000ce6:	b007      	add	sp, #28
 8000ce8:	f85d fb04 	ldr.w	pc, [sp], #4

08000cec <DHT22_Set_Input>:
 8000cec:	b57f      	push	{r0, r1, r2, r3, r4, r5, r6, lr}
 8000cee:	2300      	movs	r3, #0
 8000cf0:	8882      	ldrh	r2, [r0, #4]
 8000cf2:	e9cd 3304 	strd	r3, r3, [sp, #16]
 8000cf6:	e9cd 2301 	strd	r2, r3, [sp, #4]
 8000cfa:	2301      	movs	r3, #1
 8000cfc:	6800      	ldr	r0, [r0, #0]
 8000cfe:	a901      	add	r1, sp, #4
 8000d00:	9303      	str	r3, [sp, #12]
 8000d02:	f001 f839 	bl	8001d78 <HAL_GPIO_Init>
 8000d06:	b007      	add	sp, #28
 8000d08:	f85d fb04 	ldr.w	pc, [sp], #4

08000d0c <DHT22_Start>:
 8000d0c:	b510      	push	{r4, lr}
 8000d0e:	4604      	mov	r4, r0
 8000d10:	f7ff ffdc 	bl	8000ccc <DHT22_Set_Output>
 8000d14:	200a      	movs	r0, #10
 8000d16:	f000 fe9f 	bl	8001a58 <HAL_Delay>
 8000d1a:	88a1      	ldrh	r1, [r4, #4]
 8000d1c:	2200      	movs	r2, #0
 8000d1e:	6820      	ldr	r0, [r4, #0]
 8000d20:	f001 f906 	bl	8001f30 <HAL_GPIO_WritePin>
 8000d24:	f44f 6096 	mov.w	r0, #1200	; 0x4b0
 8000d28:	f000 fd5e 	bl	80017e8 <delay_us>
 8000d2c:	2201      	movs	r2, #1
 8000d2e:	88a1      	ldrh	r1, [r4, #4]
 8000d30:	6820      	ldr	r0, [r4, #0]
 8000d32:	f001 f8fd 	bl	8001f30 <HAL_GPIO_WritePin>
 8000d36:	201e      	movs	r0, #30
 8000d38:	f000 fd56 	bl	80017e8 <delay_us>
 8000d3c:	4620      	mov	r0, r4
 8000d3e:	f7ff ffd5 	bl	8000cec <DHT22_Set_Input>
 8000d42:	2000      	movs	r0, #0
 8000d44:	bd10      	pop	{r4, pc}

08000d46 <DHT22_Check_Response>:
 8000d46:	b570      	push	{r4, r5, r6, lr}
 8000d48:	4604      	mov	r4, r0
 8000d4a:	2500      	movs	r5, #0
 8000d4c:	88a1      	ldrh	r1, [r4, #4]
 8000d4e:	6820      	ldr	r0, [r4, #0]
 8000d50:	b2ee      	uxtb	r6, r5
 8000d52:	f001 f8e7 	bl	8001f24 <HAL_GPIO_ReadPin>
 8000d56:	b940      	cbnz	r0, 8000d6a <DHT22_Check_Response+0x24>
 8000d58:	3501      	adds	r5, #1
 8000d5a:	2d56      	cmp	r5, #86	; 0x56
 8000d5c:	d101      	bne.n	8000d62 <DHT22_Check_Response+0x1c>
 8000d5e:	2001      	movs	r0, #1
 8000d60:	bd70      	pop	{r4, r5, r6, pc}
 8000d62:	2001      	movs	r0, #1
 8000d64:	f000 fd40 	bl	80017e8 <delay_us>
 8000d68:	e7f0      	b.n	8000d4c <DHT22_Check_Response+0x6>
 8000d6a:	2e55      	cmp	r6, #85	; 0x55
 8000d6c:	d0f7      	beq.n	8000d5e <DHT22_Check_Response+0x18>
 8000d6e:	2600      	movs	r6, #0
 8000d70:	88a1      	ldrh	r1, [r4, #4]
 8000d72:	6820      	ldr	r0, [r4, #0]
 8000d74:	b2f5      	uxtb	r5, r6
 8000d76:	f001 f8d5 	bl	8001f24 <HAL_GPIO_ReadPin>
 8000d7a:	b130      	cbz	r0, 8000d8a <DHT22_Check_Response+0x44>
 8000d7c:	3601      	adds	r6, #1
 8000d7e:	2e56      	cmp	r6, #86	; 0x56
 8000d80:	d0ed      	beq.n	8000d5e <DHT22_Check_Response+0x18>
 8000d82:	2001      	movs	r0, #1
 8000d84:	f000 fd30 	bl	80017e8 <delay_us>
 8000d88:	e7f2      	b.n	8000d70 <DHT22_Check_Response+0x2a>
 8000d8a:	f1a5 0355 	sub.w	r3, r5, #85	; 0x55
 8000d8e:	4258      	negs	r0, r3
 8000d90:	4158      	adcs	r0, r3
 8000d92:	e7e5      	b.n	8000d60 <DHT22_Check_Response+0x1a>

08000d94 <DHT22_Read_raw>:
 8000d94:	e92d 41f0 	stmdb	sp!, {r4, r5, r6, r7, r8, lr}
 8000d98:	4605      	mov	r5, r0
 8000d9a:	460e      	mov	r6, r1
 8000d9c:	2707      	movs	r7, #7
 8000d9e:	f04f 0801 	mov.w	r8, #1
 8000da2:	2433      	movs	r4, #51	; 0x33
 8000da4:	e002      	b.n	8000dac <DHT22_Read_raw+0x18>
 8000da6:	2001      	movs	r0, #1
 8000da8:	f000 fd1e 	bl	80017e8 <delay_us>
 8000dac:	88a9      	ldrh	r1, [r5, #4]
 8000dae:	6828      	ldr	r0, [r5, #0]
 8000db0:	f001 f8b8 	bl	8001f24 <HAL_GPIO_ReadPin>
 8000db4:	b990      	cbnz	r0, 8000ddc <DHT22_Read_raw+0x48>
 8000db6:	3c01      	subs	r4, #1
 8000db8:	f014 04ff 	ands.w	r4, r4, #255	; 0xff
 8000dbc:	d1f3      	bne.n	8000da6 <DHT22_Read_raw+0x12>
 8000dbe:	88a9      	ldrh	r1, [r5, #4]
 8000dc0:	6828      	ldr	r0, [r5, #0]
 8000dc2:	f001 f8af 	bl	8001f24 <HAL_GPIO_ReadPin>
 8000dc6:	b158      	cbz	r0, 8000de0 <DHT22_Read_raw+0x4c>
 8000dc8:	2c5a      	cmp	r4, #90	; 0x5a
 8000dca:	d101      	bne.n	8000dd0 <DHT22_Read_raw+0x3c>
 8000dcc:	2001      	movs	r0, #1
 8000dce:	e014      	b.n	8000dfa <DHT22_Read_raw+0x66>
 8000dd0:	200a      	movs	r0, #10
 8000dd2:	340a      	adds	r4, #10
 8000dd4:	b2e4      	uxtb	r4, r4
 8000dd6:	f000 fd07 	bl	80017e8 <delay_us>
 8000dda:	e7f0      	b.n	8000dbe <DHT22_Read_raw+0x2a>
 8000ddc:	2400      	movs	r4, #0
 8000dde:	e7ee      	b.n	8000dbe <DHT22_Read_raw+0x2a>
 8000de0:	f1a4 0314 	sub.w	r3, r4, #20
 8000de4:	2b0a      	cmp	r3, #10
 8000de6:	d80a      	bhi.n	8000dfe <DHT22_Read_raw+0x6a>
 8000de8:	f06f 0301 	mvn.w	r3, #1
 8000dec:	fa03 f207 	lsl.w	r2, r3, r7
 8000df0:	7833      	ldrb	r3, [r6, #0]
 8000df2:	4013      	ands	r3, r2
 8000df4:	3f01      	subs	r7, #1
 8000df6:	7033      	strb	r3, [r6, #0]
 8000df8:	d2d3      	bcs.n	8000da2 <DHT22_Read_raw+0xe>
 8000dfa:	e8bd 81f0 	ldmia.w	sp!, {r4, r5, r6, r7, r8, pc}
 8000dfe:	3c3c      	subs	r4, #60	; 0x3c
 8000e00:	2c14      	cmp	r4, #20
 8000e02:	d8e3      	bhi.n	8000dcc <DHT22_Read_raw+0x38>
 8000e04:	7832      	ldrb	r2, [r6, #0]
 8000e06:	fa08 f307 	lsl.w	r3, r8, r7
 8000e0a:	4313      	orrs	r3, r2
 8000e0c:	e7f2      	b.n	8000df4 <DHT22_Read_raw+0x60>
	...

08000e10 <DHT22_Read_Temp_Hum>:
 8000e10:	2300      	movs	r3, #0
 8000e12:	b5f7      	push	{r0, r1, r2, r4, r5, r6, r7, lr}
 8000e14:	f10d 0103 	add.w	r1, sp, #3
 8000e18:	4605      	mov	r5, r0
 8000e1a:	f88d 3003 	strb.w	r3, [sp, #3]
 8000e1e:	f88d 3004 	strb.w	r3, [sp, #4]
 8000e22:	f88d 3005 	strb.w	r3, [sp, #5]
 8000e26:	f88d 3006 	strb.w	r3, [sp, #6]
 8000e2a:	f88d 3007 	strb.w	r3, [sp, #7]
 8000e2e:	f7ff ffb1 	bl	8000d94 <DHT22_Read_raw>
 8000e32:	a901      	add	r1, sp, #4
 8000e34:	4604      	mov	r4, r0
 8000e36:	4628      	mov	r0, r5
 8000e38:	f7ff ffac 	bl	8000d94 <DHT22_Read_raw>
 8000e3c:	f10d 0105 	add.w	r1, sp, #5
 8000e40:	4404      	add	r4, r0
 8000e42:	4628      	mov	r0, r5
 8000e44:	f7ff ffa6 	bl	8000d94 <DHT22_Read_raw>
 8000e48:	b2e4      	uxtb	r4, r4
 8000e4a:	4404      	add	r4, r0
 8000e4c:	f10d 0106 	add.w	r1, sp, #6
 8000e50:	4628      	mov	r0, r5
 8000e52:	f7ff ff9f 	bl	8000d94 <DHT22_Read_raw>
 8000e56:	b2e4      	uxtb	r4, r4
 8000e58:	4404      	add	r4, r0
 8000e5a:	f10d 0107 	add.w	r1, sp, #7
 8000e5e:	4628      	mov	r0, r5
 8000e60:	f7ff ff98 	bl	8000d94 <DHT22_Read_raw>
 8000e64:	b2e4      	uxtb	r4, r4
 8000e66:	4404      	add	r4, r0
 8000e68:	f014 04ff 	ands.w	r4, r4, #255	; 0xff
 8000e6c:	d128      	bne.n	8000ec0 <DHT22_Read_Temp_Hum+0xb0>
 8000e6e:	f89d 7003 	ldrb.w	r7, [sp, #3]
 8000e72:	f89d 6004 	ldrb.w	r6, [sp, #4]
 8000e76:	f89d 0005 	ldrb.w	r0, [sp, #5]
 8000e7a:	f89d 2006 	ldrb.w	r2, [sp, #6]
 8000e7e:	19bb      	adds	r3, r7, r6
 8000e80:	4403      	add	r3, r0
 8000e82:	f89d 1007 	ldrb.w	r1, [sp, #7]
 8000e86:	4413      	add	r3, r2
 8000e88:	b2db      	uxtb	r3, r3
 8000e8a:	4299      	cmp	r1, r3
 8000e8c:	d118      	bne.n	8000ec0 <DHT22_Read_Temp_Hum+0xb0>
 8000e8e:	ea42 2000 	orr.w	r0, r2, r0, lsl #8
 8000e92:	f7ff facd 	bl	8000430 <__aeabi_i2d>
 8000e96:	2200      	movs	r2, #0
 8000e98:	4b0a      	ldr	r3, [pc, #40]	; (8000ec4 <DHT22_Read_Temp_Hum+0xb4>)
 8000e9a:	f7ff fc5d 	bl	8000758 <__aeabi_ddiv>
 8000e9e:	f7ff fd43 	bl	8000928 <__aeabi_d2f>
 8000ea2:	60a8      	str	r0, [r5, #8]
 8000ea4:	ea46 2007 	orr.w	r0, r6, r7, lsl #8
 8000ea8:	f7ff fac2 	bl	8000430 <__aeabi_i2d>
 8000eac:	2200      	movs	r2, #0
 8000eae:	4b05      	ldr	r3, [pc, #20]	; (8000ec4 <DHT22_Read_Temp_Hum+0xb4>)
 8000eb0:	f7ff fc52 	bl	8000758 <__aeabi_ddiv>
 8000eb4:	f7ff fd38 	bl	8000928 <__aeabi_d2f>
 8000eb8:	60e8      	str	r0, [r5, #12]
 8000eba:	4620      	mov	r0, r4
 8000ebc:	b003      	add	sp, #12
 8000ebe:	bdf0      	pop	{r4, r5, r6, r7, pc}
 8000ec0:	2401      	movs	r4, #1
 8000ec2:	e7fa      	b.n	8000eba <DHT22_Read_Temp_Hum+0xaa>
 8000ec4:	40240000 	.word	0x40240000

08000ec8 <MX_DMA_Init>:
 8000ec8:	4b0a      	ldr	r3, [pc, #40]	; (8000ef4 <MX_DMA_Init+0x2c>)
 8000eca:	b507      	push	{r0, r1, r2, lr}
 8000ecc:	69da      	ldr	r2, [r3, #28]
 8000ece:	2034      	movs	r0, #52	; 0x34
 8000ed0:	f042 7200 	orr.w	r2, r2, #33554432	; 0x2000000
 8000ed4:	61da      	str	r2, [r3, #28]
 8000ed6:	2200      	movs	r2, #0
 8000ed8:	69db      	ldr	r3, [r3, #28]
 8000eda:	4611      	mov	r1, r2
 8000edc:	f003 7300 	and.w	r3, r3, #33554432	; 0x2000000
 8000ee0:	9301      	str	r3, [sp, #4]
 8000ee2:	9b01      	ldr	r3, [sp, #4]
 8000ee4:	f000 fddc 	bl	8001aa0 <HAL_NVIC_SetPriority>
 8000ee8:	2034      	movs	r0, #52	; 0x34
 8000eea:	b003      	add	sp, #12
 8000eec:	f85d eb04 	ldr.w	lr, [sp], #4
 8000ef0:	f000 be08 	b.w	8001b04 <HAL_NVIC_EnableIRQ>
 8000ef4:	40023800 	.word	0x40023800

08000ef8 <MX_GPIO_Init>:
 8000ef8:	2214      	movs	r2, #20
 8000efa:	b530      	push	{r4, r5, lr}
 8000efc:	b08b      	sub	sp, #44	; 0x2c
 8000efe:	eb0d 0002 	add.w	r0, sp, r2
 8000f02:	2100      	movs	r1, #0
 8000f04:	f002 fb98 	bl	8003638 <memset>
 8000f08:	4b23      	ldr	r3, [pc, #140]	; (8000f98 <MX_GPIO_Init+0xa0>)
 8000f0a:	4c24      	ldr	r4, [pc, #144]	; (8000f9c <MX_GPIO_Init+0xa4>)
 8000f0c:	69da      	ldr	r2, [r3, #28]
 8000f0e:	4620      	mov	r0, r4
 8000f10:	f042 0204 	orr.w	r2, r2, #4
 8000f14:	61da      	str	r2, [r3, #28]
 8000f16:	69da      	ldr	r2, [r3, #28]
 8000f18:	2102      	movs	r1, #2
 8000f1a:	f002 0204 	and.w	r2, r2, #4
 8000f1e:	9201      	str	r2, [sp, #4]
 8000f20:	9a01      	ldr	r2, [sp, #4]
 8000f22:	69da      	ldr	r2, [r3, #28]
 8000f24:	2500      	movs	r5, #0
 8000f26:	f042 0220 	orr.w	r2, r2, #32
 8000f2a:	61da      	str	r2, [r3, #28]
 8000f2c:	69da      	ldr	r2, [r3, #28]
 8000f2e:	f002 0220 	and.w	r2, r2, #32
 8000f32:	9202      	str	r2, [sp, #8]
 8000f34:	9a02      	ldr	r2, [sp, #8]
 8000f36:	69da      	ldr	r2, [r3, #28]
 8000f38:	f042 0201 	orr.w	r2, r2, #1
 8000f3c:	61da      	str	r2, [r3, #28]
 8000f3e:	69da      	ldr	r2, [r3, #28]
 8000f40:	f002 0201 	and.w	r2, r2, #1
 8000f44:	9203      	str	r2, [sp, #12]
 8000f46:	9a03      	ldr	r2, [sp, #12]
 8000f48:	69da      	ldr	r2, [r3, #28]
 8000f4a:	f042 0202 	orr.w	r2, r2, #2
 8000f4e:	61da      	str	r2, [r3, #28]
 8000f50:	69db      	ldr	r3, [r3, #28]
 8000f52:	2201      	movs	r2, #1
 8000f54:	f003 0302 	and.w	r3, r3, #2
 8000f58:	9304      	str	r3, [sp, #16]
 8000f5a:	9b04      	ldr	r3, [sp, #16]
 8000f5c:	f000 ffe8 	bl	8001f30 <HAL_GPIO_WritePin>
 8000f60:	4620      	mov	r0, r4
 8000f62:	2200      	movs	r2, #0
 8000f64:	2120      	movs	r1, #32
 8000f66:	f000 ffe3 	bl	8001f30 <HAL_GPIO_WritePin>
 8000f6a:	f44f 5200 	mov.w	r2, #8192	; 0x2000
 8000f6e:	f44f 1388 	mov.w	r3, #1114112	; 0x110000
 8000f72:	a905      	add	r1, sp, #20
 8000f74:	480a      	ldr	r0, [pc, #40]	; (8000fa0 <MX_GPIO_Init+0xa8>)
 8000f76:	e9cd 2305 	strd	r2, r3, [sp, #20]
 8000f7a:	9507      	str	r5, [sp, #28]
 8000f7c:	f000 fefc 	bl	8001d78 <HAL_GPIO_Init>
 8000f80:	2301      	movs	r3, #1
 8000f82:	2122      	movs	r1, #34	; 0x22
 8000f84:	4620      	mov	r0, r4
 8000f86:	e9cd 1305 	strd	r1, r3, [sp, #20]
 8000f8a:	a905      	add	r1, sp, #20
 8000f8c:	e9cd 5507 	strd	r5, r5, [sp, #28]
 8000f90:	f000 fef2 	bl	8001d78 <HAL_GPIO_Init>
 8000f94:	b00b      	add	sp, #44	; 0x2c
 8000f96:	bd30      	pop	{r4, r5, pc}
 8000f98:	40023800 	.word	0x40023800
 8000f9c:	40020000 	.word	0x40020000
 8000fa0:	40020800 	.word	0x40020800

08000fa4 <MX_I2C1_Init>:
 8000fa4:	b508      	push	{r3, lr}
 8000fa6:	480b      	ldr	r0, [pc, #44]	; (8000fd4 <MX_I2C1_Init+0x30>)
 8000fa8:	4a0b      	ldr	r2, [pc, #44]	; (8000fd8 <MX_I2C1_Init+0x34>)
 8000faa:	4b0c      	ldr	r3, [pc, #48]	; (8000fdc <MX_I2C1_Init+0x38>)
 8000fac:	e9c0 2300 	strd	r2, r3, [r0]
 8000fb0:	2300      	movs	r3, #0
 8000fb2:	f44f 4280 	mov.w	r2, #16384	; 0x4000
 8000fb6:	e9c0 3302 	strd	r3, r3, [r0, #8]
 8000fba:	e9c0 2304 	strd	r2, r3, [r0, #16]
 8000fbe:	e9c0 3306 	strd	r3, r3, [r0, #24]
 8000fc2:	6203      	str	r3, [r0, #32]
 8000fc4:	f001 f88c 	bl	80020e0 <HAL_I2C_Init>
 8000fc8:	b118      	cbz	r0, 8000fd2 <MX_I2C1_Init+0x2e>
 8000fca:	e8bd 4008 	ldmia.w	sp!, {r3, lr}
 8000fce:	f000 bb1d 	b.w	800160c <Error_Handler>
 8000fd2:	bd08      	pop	{r3, pc}
 8000fd4:	200002b0 	.word	0x200002b0
 8000fd8:	40005400 	.word	0x40005400
 8000fdc:	000186a0 	.word	0x000186a0

08000fe0 <HAL_I2C_MspInit>:
 8000fe0:	b510      	push	{r4, lr}
 8000fe2:	4604      	mov	r4, r0
 8000fe4:	b088      	sub	sp, #32
 8000fe6:	2214      	movs	r2, #20
 8000fe8:	2100      	movs	r1, #0
 8000fea:	a803      	add	r0, sp, #12
 8000fec:	f002 fb24 	bl	8003638 <memset>
 8000ff0:	6822      	ldr	r2, [r4, #0]
 8000ff2:	4b13      	ldr	r3, [pc, #76]	; (8001040 <HAL_I2C_MspInit+0x60>)
 8000ff4:	429a      	cmp	r2, r3
 8000ff6:	d121      	bne.n	800103c <HAL_I2C_MspInit+0x5c>
 8000ff8:	4c12      	ldr	r4, [pc, #72]	; (8001044 <HAL_I2C_MspInit+0x64>)
 8000ffa:	f44f 7240 	mov.w	r2, #768	; 0x300
 8000ffe:	69e3      	ldr	r3, [r4, #28]
 8001000:	2100      	movs	r1, #0
 8001002:	f043 0302 	orr.w	r3, r3, #2
 8001006:	61e3      	str	r3, [r4, #28]
 8001008:	69e3      	ldr	r3, [r4, #28]
 800100a:	480f      	ldr	r0, [pc, #60]	; (8001048 <HAL_I2C_MspInit+0x68>)
 800100c:	f003 0302 	and.w	r3, r3, #2
 8001010:	9301      	str	r3, [sp, #4]
 8001012:	9b01      	ldr	r3, [sp, #4]
 8001014:	2312      	movs	r3, #18
 8001016:	e9cd 2303 	strd	r2, r3, [sp, #12]
 800101a:	2303      	movs	r3, #3
 800101c:	e9cd 1305 	strd	r1, r3, [sp, #20]
 8001020:	2304      	movs	r3, #4
 8001022:	a903      	add	r1, sp, #12
 8001024:	9307      	str	r3, [sp, #28]
 8001026:	f000 fea7 	bl	8001d78 <HAL_GPIO_Init>
 800102a:	6a63      	ldr	r3, [r4, #36]	; 0x24
 800102c:	f443 1300 	orr.w	r3, r3, #2097152	; 0x200000
 8001030:	6263      	str	r3, [r4, #36]	; 0x24
 8001032:	6a63      	ldr	r3, [r4, #36]	; 0x24
 8001034:	f403 1300 	and.w	r3, r3, #2097152	; 0x200000
 8001038:	9302      	str	r3, [sp, #8]
 800103a:	9b02      	ldr	r3, [sp, #8]
 800103c:	b008      	add	sp, #32
 800103e:	bd10      	pop	{r4, pc}
 8001040:	40005400 	.word	0x40005400
 8001044:	40023800 	.word	0x40023800
 8001048:	40020400 	.word	0x40020400

0800104c <set_usar1_irq>:
 800104c:	f3ef 8310 	mrs	r3, PRIMASK
 8001050:	b672      	cpsid	i
 8001052:	4a02      	ldr	r2, [pc, #8]	; (800105c <set_usar1_irq+0x10>)
 8001054:	7010      	strb	r0, [r2, #0]
 8001056:	b903      	cbnz	r3, 800105a <set_usar1_irq+0xe>
 8001058:	b662      	cpsie	i
 800105a:	4770      	bx	lr
 800105c:	2000008c 	.word	0x2000008c

08001060 <get_usar1_irq>:
 8001060:	f3ef 8310 	mrs	r3, PRIMASK
 8001064:	b672      	cpsid	i
 8001066:	4a02      	ldr	r2, [pc, #8]	; (8001070 <get_usar1_irq+0x10>)
 8001068:	7810      	ldrb	r0, [r2, #0]
 800106a:	b903      	cbnz	r3, 800106e <get_usar1_irq+0xe>
 800106c:	b662      	cpsie	i
 800106e:	4770      	bx	lr
 8001070:	2000008c 	.word	0x2000008c

08001074 <get_usar4_irq>:
 8001074:	f3ef 8310 	mrs	r3, PRIMASK
 8001078:	b672      	cpsid	i
 800107a:	4a02      	ldr	r2, [pc, #8]	; (8001084 <get_usar4_irq+0x10>)
 800107c:	7810      	ldrb	r0, [r2, #0]
 800107e:	b903      	cbnz	r3, 8001082 <get_usar4_irq+0xe>
 8001080:	b662      	cpsie	i
 8001082:	4770      	bx	lr
 8001084:	2000008d 	.word	0x2000008d

08001088 <USART1_SendIT>:
 8001088:	6803      	ldr	r3, [r0, #0]
 800108a:	68da      	ldr	r2, [r3, #12]
 800108c:	f022 0220 	bic.w	r2, r2, #32
 8001090:	60da      	str	r2, [r3, #12]
 8001092:	68da      	ldr	r2, [r3, #12]
 8001094:	f422 7280 	bic.w	r2, r2, #256	; 0x100
 8001098:	60da      	str	r2, [r3, #12]
 800109a:	695a      	ldr	r2, [r3, #20]
 800109c:	f022 0201 	bic.w	r2, r2, #1
 80010a0:	615a      	str	r2, [r3, #20]
 80010a2:	2220      	movs	r2, #32
 80010a4:	4b02      	ldr	r3, [pc, #8]	; (80010b0 <USART1_SendIT+0x28>)
 80010a6:	f883 203e 	strb.w	r2, [r3, #62]	; 0x3e
 80010aa:	f000 b90c 	b.w	80012c6 <rx_cb_USART_1>
 80010ae:	bf00      	nop
 80010b0:	200003d0 	.word	0x200003d0

080010b4 <USART1_Enable_IT>:
 80010b4:	f890 303c 	ldrb.w	r3, [r0, #60]	; 0x3c
 80010b8:	2b01      	cmp	r3, #1
 80010ba:	d015      	beq.n	80010e8 <USART1_Enable_IT+0x34>
 80010bc:	2300      	movs	r3, #0
 80010be:	2122      	movs	r1, #34	; 0x22
 80010c0:	4a0a      	ldr	r2, [pc, #40]	; (80010ec <USART1_Enable_IT+0x38>)
 80010c2:	6313      	str	r3, [r2, #48]	; 0x30
 80010c4:	6413      	str	r3, [r2, #64]	; 0x40
 80010c6:	f882 103e 	strb.w	r1, [r2, #62]	; 0x3e
 80010ca:	f880 303c 	strb.w	r3, [r0, #60]	; 0x3c
 80010ce:	6803      	ldr	r3, [r0, #0]
 80010d0:	68da      	ldr	r2, [r3, #12]
 80010d2:	f442 7280 	orr.w	r2, r2, #256	; 0x100
 80010d6:	60da      	str	r2, [r3, #12]
 80010d8:	695a      	ldr	r2, [r3, #20]
 80010da:	f042 0201 	orr.w	r2, r2, #1
 80010de:	615a      	str	r2, [r3, #20]
 80010e0:	68da      	ldr	r2, [r3, #12]
 80010e2:	f042 0220 	orr.w	r2, r2, #32
 80010e6:	60da      	str	r2, [r3, #12]
 80010e8:	4770      	bx	lr
 80010ea:	bf00      	nop
 80010ec:	200003d0 	.word	0x200003d0

080010f0 <lcd_init>:
 80010f0:	b5f0      	push	{r4, r5, r6, r7, lr}
 80010f2:	780b      	ldrb	r3, [r1, #0]
 80010f4:	4604      	mov	r4, r0
 80010f6:	f043 020c 	orr.w	r2, r3, #12
 80010fa:	700a      	strb	r2, [r1, #0]
 80010fc:	2280      	movs	r2, #128	; 0x80
 80010fe:	f241 3588 	movw	r5, #5000	; 0x1388
 8001102:	b087      	sub	sp, #28
 8001104:	f043 032c 	orr.w	r3, r3, #44	; 0x2c
 8001108:	460f      	mov	r7, r1
 800110a:	f88d 200c 	strb.w	r2, [sp, #12]
 800110e:	217c      	movs	r1, #124	; 0x7c
 8001110:	2205      	movs	r2, #5
 8001112:	f88d 300d 	strb.w	r3, [sp, #13]
 8001116:	2364      	movs	r3, #100	; 0x64
 8001118:	f001 f962 	bl	80023e0 <HAL_I2C_IsDeviceReady>
 800111c:	2032      	movs	r0, #50	; 0x32
 800111e:	f000 fc9b 	bl	8001a58 <HAL_Delay>
 8001122:	aa03      	add	r2, sp, #12
 8001124:	2302      	movs	r3, #2
 8001126:	217c      	movs	r1, #124	; 0x7c
 8001128:	9500      	str	r5, [sp, #0]
 800112a:	4620      	mov	r0, r4
 800112c:	f001 f880 	bl	8002230 <HAL_I2C_Master_Transmit>
 8001130:	2032      	movs	r0, #50	; 0x32
 8001132:	f000 fc91 	bl	8001a58 <HAL_Delay>
 8001136:	aa03      	add	r2, sp, #12
 8001138:	2302      	movs	r3, #2
 800113a:	217c      	movs	r1, #124	; 0x7c
 800113c:	9500      	str	r5, [sp, #0]
 800113e:	4620      	mov	r0, r4
 8001140:	f001 f876 	bl	8002230 <HAL_I2C_Master_Transmit>
 8001144:	2005      	movs	r0, #5
 8001146:	f000 fc87 	bl	8001a58 <HAL_Delay>
 800114a:	9500      	str	r5, [sp, #0]
 800114c:	aa03      	add	r2, sp, #12
 800114e:	2302      	movs	r3, #2
 8001150:	217c      	movs	r1, #124	; 0x7c
 8001152:	4620      	mov	r0, r4
 8001154:	f001 f86c 	bl	8002230 <HAL_I2C_Master_Transmit>
 8001158:	2304      	movs	r3, #4
 800115a:	f44f 757a 	mov.w	r5, #1000	; 0x3e8
 800115e:	707b      	strb	r3, [r7, #1]
 8001160:	230c      	movs	r3, #12
 8001162:	aa03      	add	r2, sp, #12
 8001164:	f88d 300d 	strb.w	r3, [sp, #13]
 8001168:	217c      	movs	r1, #124	; 0x7c
 800116a:	2302      	movs	r3, #2
 800116c:	4620      	mov	r0, r4
 800116e:	9500      	str	r5, [sp, #0]
 8001170:	f001 f85e 	bl	8002230 <HAL_I2C_Master_Transmit>
 8001174:	2301      	movs	r3, #1
 8001176:	aa03      	add	r2, sp, #12
 8001178:	217c      	movs	r1, #124	; 0x7c
 800117a:	f88d 300d 	strb.w	r3, [sp, #13]
 800117e:	4620      	mov	r0, r4
 8001180:	2302      	movs	r3, #2
 8001182:	9500      	str	r5, [sp, #0]
 8001184:	f001 f854 	bl	8002230 <HAL_I2C_Master_Transmit>
 8001188:	2002      	movs	r0, #2
 800118a:	f000 fc65 	bl	8001a58 <HAL_Delay>
 800118e:	2602      	movs	r6, #2
 8001190:	2306      	movs	r3, #6
 8001192:	aa03      	add	r2, sp, #12
 8001194:	f88d 300d 	strb.w	r3, [sp, #13]
 8001198:	217c      	movs	r1, #124	; 0x7c
 800119a:	4633      	mov	r3, r6
 800119c:	4620      	mov	r0, r4
 800119e:	70be      	strb	r6, [r7, #2]
 80011a0:	9500      	str	r5, [sp, #0]
 80011a2:	f001 f845 	bl	8002230 <HAL_I2C_Master_Transmit>
 80011a6:	2300      	movs	r3, #0
 80011a8:	aa04      	add	r2, sp, #16
 80011aa:	f8ad 3010 	strh.w	r3, [sp, #16]
 80011ae:	21c4      	movs	r1, #196	; 0xc4
 80011b0:	4633      	mov	r3, r6
 80011b2:	4620      	mov	r0, r4
 80011b4:	9500      	str	r5, [sp, #0]
 80011b6:	f001 f83b 	bl	8002230 <HAL_I2C_Master_Transmit>
 80011ba:	f64f 7308 	movw	r3, #65288	; 0xff08
 80011be:	aa04      	add	r2, sp, #16
 80011c0:	f8ad 3010 	strh.w	r3, [sp, #16]
 80011c4:	21c4      	movs	r1, #196	; 0xc4
 80011c6:	4633      	mov	r3, r6
 80011c8:	4620      	mov	r0, r4
 80011ca:	9500      	str	r5, [sp, #0]
 80011cc:	f001 f830 	bl	8002230 <HAL_I2C_Master_Transmit>
 80011d0:	f242 0301 	movw	r3, #8193	; 0x2001
 80011d4:	aa04      	add	r2, sp, #16
 80011d6:	f8ad 3010 	strh.w	r3, [sp, #16]
 80011da:	21c4      	movs	r1, #196	; 0xc4
 80011dc:	4633      	mov	r3, r6
 80011de:	4620      	mov	r0, r4
 80011e0:	9500      	str	r5, [sp, #0]
 80011e2:	f001 f825 	bl	8002230 <HAL_I2C_Master_Transmit>
 80011e6:	f64f 7304 	movw	r3, #65284	; 0xff04
 80011ea:	aa05      	add	r2, sp, #20
 80011ec:	f8ad 3014 	strh.w	r3, [sp, #20]
 80011f0:	21c4      	movs	r1, #196	; 0xc4
 80011f2:	4633      	mov	r3, r6
 80011f4:	4620      	mov	r0, r4
 80011f6:	9500      	str	r5, [sp, #0]
 80011f8:	f001 f81a 	bl	8002230 <HAL_I2C_Master_Transmit>
 80011fc:	f64f 7303 	movw	r3, #65283	; 0xff03
 8001200:	aa05      	add	r2, sp, #20
 8001202:	f8ad 3014 	strh.w	r3, [sp, #20]
 8001206:	21c4      	movs	r1, #196	; 0xc4
 8001208:	4633      	mov	r3, r6
 800120a:	4620      	mov	r0, r4
 800120c:	9500      	str	r5, [sp, #0]
 800120e:	f001 f80f 	bl	8002230 <HAL_I2C_Master_Transmit>
 8001212:	f64f 7302 	movw	r3, #65282	; 0xff02
 8001216:	21c4      	movs	r1, #196	; 0xc4
 8001218:	f8ad 3014 	strh.w	r3, [sp, #20]
 800121c:	4620      	mov	r0, r4
 800121e:	4633      	mov	r3, r6
 8001220:	9500      	str	r5, [sp, #0]
 8001222:	aa05      	add	r2, sp, #20
 8001224:	f001 f804 	bl	8002230 <HAL_I2C_Master_Transmit>
 8001228:	b007      	add	sp, #28
 800122a:	bdf0      	pop	{r4, r5, r6, r7, pc}

0800122c <lcd_print>:
 800122c:	b57f      	push	{r0, r1, r2, r3, r4, r5, r6, lr}
 800122e:	2340      	movs	r3, #64	; 0x40
 8001230:	4605      	mov	r5, r0
 8001232:	f44f 767a 	mov.w	r6, #1000	; 0x3e8
 8001236:	f88d 300c 	strb.w	r3, [sp, #12]
 800123a:	1e4c      	subs	r4, r1, #1
 800123c:	f814 3f01 	ldrb.w	r3, [r4, #1]!
 8001240:	b90b      	cbnz	r3, 8001246 <lcd_print+0x1a>
 8001242:	b004      	add	sp, #16
 8001244:	bd70      	pop	{r4, r5, r6, pc}
 8001246:	f88d 300d 	strb.w	r3, [sp, #13]
 800124a:	217c      	movs	r1, #124	; 0x7c
 800124c:	2302      	movs	r3, #2
 800124e:	4628      	mov	r0, r5
 8001250:	9600      	str	r6, [sp, #0]
 8001252:	aa03      	add	r2, sp, #12
 8001254:	f000 ffec 	bl	8002230 <HAL_I2C_Master_Transmit>
 8001258:	e7f0      	b.n	800123c <lcd_print+0x10>

0800125a <lcd_position>:
 800125a:	b51f      	push	{r0, r1, r2, r3, r4, lr}
 800125c:	b98a      	cbnz	r2, 8001282 <lcd_position+0x28>
 800125e:	f041 0180 	orr.w	r1, r1, #128	; 0x80
 8001262:	2380      	movs	r3, #128	; 0x80
 8001264:	f88d 300c 	strb.w	r3, [sp, #12]
 8001268:	f44f 737a 	mov.w	r3, #1000	; 0x3e8
 800126c:	f88d 100d 	strb.w	r1, [sp, #13]
 8001270:	9300      	str	r3, [sp, #0]
 8001272:	217c      	movs	r1, #124	; 0x7c
 8001274:	2302      	movs	r3, #2
 8001276:	aa03      	add	r2, sp, #12
 8001278:	f000 ffda 	bl	8002230 <HAL_I2C_Master_Transmit>
 800127c:	b005      	add	sp, #20
 800127e:	f85d fb04 	ldr.w	pc, [sp], #4
 8001282:	f041 01c0 	orr.w	r1, r1, #192	; 0xc0
 8001286:	e7ec      	b.n	8001262 <lcd_position+0x8>

08001288 <clearlcd>:
 8001288:	2200      	movs	r2, #0
 800128a:	b538      	push	{r3, r4, r5, lr}
 800128c:	4c0a      	ldr	r4, [pc, #40]	; (80012b8 <clearlcd+0x30>)
 800128e:	4d0b      	ldr	r5, [pc, #44]	; (80012bc <clearlcd+0x34>)
 8001290:	4611      	mov	r1, r2
 8001292:	4620      	mov	r0, r4
 8001294:	f7ff ffe1 	bl	800125a <lcd_position>
 8001298:	4629      	mov	r1, r5
 800129a:	4620      	mov	r0, r4
 800129c:	f7ff ffc6 	bl	800122c <lcd_print>
 80012a0:	4620      	mov	r0, r4
 80012a2:	2100      	movs	r1, #0
 80012a4:	2201      	movs	r2, #1
 80012a6:	f7ff ffd8 	bl	800125a <lcd_position>
 80012aa:	4629      	mov	r1, r5
 80012ac:	4620      	mov	r0, r4
 80012ae:	e8bd 4038 	ldmia.w	sp!, {r3, r4, r5, lr}
 80012b2:	f7ff bfbb 	b.w	800122c <lcd_print>
 80012b6:	bf00      	nop
 80012b8:	200002b0 	.word	0x200002b0
 80012bc:	08003ef0 	.word	0x08003ef0

080012c0 <HAL_UART_RxCpltCallback>:
 80012c0:	2001      	movs	r0, #1
 80012c2:	f000 bbc9 	b.w	8001a58 <HAL_Delay>

080012c6 <rx_cb_USART_1>:
 80012c6:	2001      	movs	r0, #1
 80012c8:	f7ff bec0 	b.w	800104c <set_usar1_irq>

080012cc <SystemClock_Config>:
 80012cc:	b510      	push	{r4, lr}
 80012ce:	b092      	sub	sp, #72	; 0x48
 80012d0:	2220      	movs	r2, #32
 80012d2:	2100      	movs	r1, #0
 80012d4:	a806      	add	r0, sp, #24
 80012d6:	f002 f9af 	bl	8003638 <memset>
 80012da:	2214      	movs	r2, #20
 80012dc:	2100      	movs	r1, #0
 80012de:	4668      	mov	r0, sp
 80012e0:	f002 f9aa 	bl	8003638 <memset>
 80012e4:	4a15      	ldr	r2, [pc, #84]	; (800133c <SystemClock_Config+0x70>)
 80012e6:	2100      	movs	r1, #0
 80012e8:	6813      	ldr	r3, [r2, #0]
 80012ea:	2401      	movs	r4, #1
 80012ec:	f423 53c0 	bic.w	r3, r3, #6144	; 0x1800
 80012f0:	f443 6300 	orr.w	r3, r3, #2048	; 0x800
 80012f4:	6013      	str	r3, [r2, #0]
 80012f6:	2302      	movs	r3, #2
 80012f8:	9305      	str	r3, [sp, #20]
 80012fa:	930e      	str	r3, [sp, #56]	; 0x38
 80012fc:	f44f 2380 	mov.w	r3, #262144	; 0x40000
 8001300:	2210      	movs	r2, #16
 8001302:	e9cd 130f 	strd	r1, r3, [sp, #60]	; 0x3c
 8001306:	f44f 0380 	mov.w	r3, #4194304	; 0x400000
 800130a:	a805      	add	r0, sp, #20
 800130c:	e9cd 4208 	strd	r4, r2, [sp, #32]
 8001310:	9311      	str	r3, [sp, #68]	; 0x44
 8001312:	f001 f957 	bl	80025c4 <HAL_RCC_OscConfig>
 8001316:	b108      	cbz	r0, 800131c <SystemClock_Config+0x50>
 8001318:	b672      	cpsid	i
 800131a:	e7fe      	b.n	800131a <SystemClock_Config+0x4e>
 800131c:	220f      	movs	r2, #15
 800131e:	2303      	movs	r3, #3
 8001320:	e9cd 0002 	strd	r0, r0, [sp, #8]
 8001324:	9004      	str	r0, [sp, #16]
 8001326:	4621      	mov	r1, r4
 8001328:	4668      	mov	r0, sp
 800132a:	e9cd 2300 	strd	r2, r3, [sp]
 800132e:	f001 fb9f 	bl	8002a70 <HAL_RCC_ClockConfig>
 8001332:	b108      	cbz	r0, 8001338 <SystemClock_Config+0x6c>
 8001334:	b672      	cpsid	i
 8001336:	e7fe      	b.n	8001336 <SystemClock_Config+0x6a>
 8001338:	b012      	add	sp, #72	; 0x48
 800133a:	bd10      	pop	{r4, pc}
 800133c:	40007000 	.word	0x40007000

08001340 <main>:
 8001340:	e92d 43f0 	stmdb	sp!, {r4, r5, r6, r7, r8, r9, lr}
 8001344:	2700      	movs	r7, #0
 8001346:	b0bd      	sub	sp, #244	; 0xf4
 8001348:	2260      	movs	r2, #96	; 0x60
 800134a:	4639      	mov	r1, r7
 800134c:	a804      	add	r0, sp, #16
 800134e:	9703      	str	r7, [sp, #12]
 8001350:	f002 f972 	bl	8003638 <memset>
 8001354:	227c      	movs	r2, #124	; 0x7c
 8001356:	4639      	mov	r1, r7
 8001358:	a81d      	add	r0, sp, #116	; 0x74
 800135a:	971c      	str	r7, [sp, #112]	; 0x70
 800135c:	f002 f96c 	bl	8003638 <memset>
 8001360:	f000 fb58 	bl	8001a14 <HAL_Init>
 8001364:	f7ff ffb2 	bl	80012cc <SystemClock_Config>
 8001368:	f7ff fdc6 	bl	8000ef8 <MX_GPIO_Init>
 800136c:	f7ff fe1a 	bl	8000fa4 <MX_I2C1_Init>
 8001370:	f000 f9f4 	bl	800175c <MX_TIM2_Init>
 8001374:	f000 fa5e 	bl	8001834 <MX_USART1_UART_Init>
 8001378:	f7ff fda6 	bl	8000ec8 <MX_DMA_Init>
 800137c:	f000 fa3e 	bl	80017fc <MX_UART4_Init>
 8001380:	488f      	ldr	r0, [pc, #572]	; (80015c0 <main+0x280>)
 8001382:	f001 fcc1 	bl	8002d08 <HAL_TIM_Base_Start>
 8001386:	2202      	movs	r2, #2
 8001388:	498e      	ldr	r1, [pc, #568]	; (80015c4 <main+0x284>)
 800138a:	488f      	ldr	r0, [pc, #572]	; (80015c8 <main+0x288>)
 800138c:	f7ff fc98 	bl	8000cc0 <DHT22_Init>
 8001390:	220c      	movs	r2, #12
 8001392:	498e      	ldr	r1, [pc, #568]	; (80015cc <main+0x28c>)
 8001394:	488e      	ldr	r0, [pc, #568]	; (80015d0 <main+0x290>)
 8001396:	f002 f90d 	bl	80035b4 <HAL_UART_Receive_DMA>
 800139a:	488e      	ldr	r0, [pc, #568]	; (80015d4 <main+0x294>)
 800139c:	f7ff fe8a 	bl	80010b4 <USART1_Enable_IT>
 80013a0:	498d      	ldr	r1, [pc, #564]	; (80015d8 <main+0x298>)
 80013a2:	488e      	ldr	r0, [pc, #568]	; (80015dc <main+0x29c>)
 80013a4:	f7ff fea4 	bl	80010f0 <lcd_init>
 80013a8:	2064      	movs	r0, #100	; 0x64
 80013aa:	f000 fb55 	bl	8001a58 <HAL_Delay>
 80013ae:	f7ff ff6b 	bl	8001288 <clearlcd>
 80013b2:	2064      	movs	r0, #100	; 0x64
 80013b4:	f000 fb50 	bl	8001a58 <HAL_Delay>
 80013b8:	463a      	mov	r2, r7
 80013ba:	4639      	mov	r1, r7
 80013bc:	4887      	ldr	r0, [pc, #540]	; (80015dc <main+0x29c>)
 80013be:	f7ff ff4c 	bl	800125a <lcd_position>
 80013c2:	f8df 9244 	ldr.w	r9, [pc, #580]	; 8001608 <main+0x2c8>
 80013c6:	200a      	movs	r0, #10
 80013c8:	f000 fb46 	bl	8001a58 <HAL_Delay>
 80013cc:	4984      	ldr	r1, [pc, #528]	; (80015e0 <main+0x2a0>)
 80013ce:	4883      	ldr	r0, [pc, #524]	; (80015dc <main+0x29c>)
 80013d0:	f7ff ff2c 	bl	800122c <lcd_print>
 80013d4:	464d      	mov	r5, r9
 80013d6:	f8df 81f0 	ldr.w	r8, [pc, #496]	; 80015c8 <main+0x288>
 80013da:	f899 6000 	ldrb.w	r6, [r9]
 80013de:	2e06      	cmp	r6, #6
 80013e0:	f200 80ec 	bhi.w	80015bc <main+0x27c>
 80013e4:	a301      	add	r3, pc, #4	; (adr r3, 80013ec <main+0xac>)
 80013e6:	f853 f026 	ldr.w	pc, [r3, r6, lsl #2]
 80013ea:	bf00      	nop
 80013ec:	080013db 	.word	0x080013db
 80013f0:	08001417 	.word	0x08001417
 80013f4:	080014a3 	.word	0x080014a3
 80013f8:	080014bd 	.word	0x080014bd
 80013fc:	080015b5 	.word	0x080015b5
 8001400:	0800149f 	.word	0x0800149f
 8001404:	080015b9 	.word	0x080015b9
 8001408:	3601      	adds	r6, #1
 800140a:	200a      	movs	r0, #10
 800140c:	b2f6      	uxtb	r6, r6
 800140e:	f000 fb23 	bl	8001a58 <HAL_Delay>
 8001412:	2e04      	cmp	r6, #4
 8001414:	d043      	beq.n	800149e <main+0x15e>
 8001416:	486c      	ldr	r0, [pc, #432]	; (80015c8 <main+0x288>)
 8001418:	f7ff fc78 	bl	8000d0c <DHT22_Start>
 800141c:	2800      	cmp	r0, #0
 800141e:	d1f3      	bne.n	8001408 <main+0xc8>
 8001420:	4640      	mov	r0, r8
 8001422:	f7ff fc90 	bl	8000d46 <DHT22_Check_Response>
 8001426:	2800      	cmp	r0, #0
 8001428:	d1ee      	bne.n	8001408 <main+0xc8>
 800142a:	4640      	mov	r0, r8
 800142c:	f7ff fcf0 	bl	8000e10 <DHT22_Read_Temp_Hum>
 8001430:	4604      	mov	r4, r0
 8001432:	2800      	cmp	r0, #0
 8001434:	d1e8      	bne.n	8001408 <main+0xc8>
 8001436:	f7ff ff27 	bl	8001288 <clearlcd>
 800143a:	4622      	mov	r2, r4
 800143c:	4621      	mov	r1, r4
 800143e:	4867      	ldr	r0, [pc, #412]	; (80015dc <main+0x29c>)
 8001440:	f7ff ff0b 	bl	800125a <lcd_position>
 8001444:	2280      	movs	r2, #128	; 0x80
 8001446:	4621      	mov	r1, r4
 8001448:	a81c      	add	r0, sp, #112	; 0x70
 800144a:	f002 f8f5 	bl	8003638 <memset>
 800144e:	f8d8 000c 	ldr.w	r0, [r8, #12]
 8001452:	f7fe ffff 	bl	8000454 <__aeabi_f2d>
 8001456:	460b      	mov	r3, r1
 8001458:	2125      	movs	r1, #37	; 0x25
 800145a:	4602      	mov	r2, r0
 800145c:	9100      	str	r1, [sp, #0]
 800145e:	a81c      	add	r0, sp, #112	; 0x70
 8001460:	4960      	ldr	r1, [pc, #384]	; (80015e4 <main+0x2a4>)
 8001462:	f002 f8f1 	bl	8003648 <siprintf>
 8001466:	485d      	ldr	r0, [pc, #372]	; (80015dc <main+0x29c>)
 8001468:	a91c      	add	r1, sp, #112	; 0x70
 800146a:	f7ff fedf 	bl	800122c <lcd_print>
 800146e:	2201      	movs	r2, #1
 8001470:	4621      	mov	r1, r4
 8001472:	485a      	ldr	r0, [pc, #360]	; (80015dc <main+0x29c>)
 8001474:	f7ff fef1 	bl	800125a <lcd_position>
 8001478:	2280      	movs	r2, #128	; 0x80
 800147a:	4621      	mov	r1, r4
 800147c:	a81c      	add	r0, sp, #112	; 0x70
 800147e:	f002 f8db 	bl	8003638 <memset>
 8001482:	f8d8 0008 	ldr.w	r0, [r8, #8]
 8001486:	f7fe ffe5 	bl	8000454 <__aeabi_f2d>
 800148a:	4602      	mov	r2, r0
 800148c:	460b      	mov	r3, r1
 800148e:	a81c      	add	r0, sp, #112	; 0x70
 8001490:	4955      	ldr	r1, [pc, #340]	; (80015e8 <main+0x2a8>)
 8001492:	f002 f8d9 	bl	8003648 <siprintf>
 8001496:	4851      	ldr	r0, [pc, #324]	; (80015dc <main+0x29c>)
 8001498:	a91c      	add	r1, sp, #112	; 0x70
 800149a:	f7ff fec7 	bl	800122c <lcd_print>
 800149e:	2300      	movs	r3, #0
 80014a0:	e004      	b.n	80014ac <main+0x16c>
 80014a2:	f7ff fde7 	bl	8001074 <get_usar4_irq>
 80014a6:	2801      	cmp	r0, #1
 80014a8:	d102      	bne.n	80014b0 <main+0x170>
 80014aa:	2303      	movs	r3, #3
 80014ac:	702b      	strb	r3, [r5, #0]
 80014ae:	e794      	b.n	80013da <main+0x9a>
 80014b0:	f44f 707a 	mov.w	r0, #1000	; 0x3e8
 80014b4:	f000 fad0 	bl	8001a58 <HAL_Delay>
 80014b8:	2302      	movs	r3, #2
 80014ba:	e7f7      	b.n	80014ac <main+0x16c>
 80014bc:	2264      	movs	r2, #100	; 0x64
 80014be:	2100      	movs	r1, #0
 80014c0:	a803      	add	r0, sp, #12
 80014c2:	f002 f8b9 	bl	8003638 <memset>
 80014c6:	4949      	ldr	r1, [pc, #292]	; (80015ec <main+0x2ac>)
 80014c8:	a803      	add	r0, sp, #12
 80014ca:	f002 f8dd 	bl	8003688 <strcat>
 80014ce:	2280      	movs	r2, #128	; 0x80
 80014d0:	2100      	movs	r1, #0
 80014d2:	a81c      	add	r0, sp, #112	; 0x70
 80014d4:	f002 f8b0 	bl	8003638 <memset>
 80014d8:	2201      	movs	r2, #1
 80014da:	4945      	ldr	r1, [pc, #276]	; (80015f0 <main+0x2b0>)
 80014dc:	a81c      	add	r0, sp, #112	; 0x70
 80014de:	f002 f8b3 	bl	8003648 <siprintf>
 80014e2:	a91c      	add	r1, sp, #112	; 0x70
 80014e4:	a803      	add	r0, sp, #12
 80014e6:	f002 f8cf 	bl	8003688 <strcat>
 80014ea:	2280      	movs	r2, #128	; 0x80
 80014ec:	2100      	movs	r1, #0
 80014ee:	a81c      	add	r0, sp, #112	; 0x70
 80014f0:	f002 f8a2 	bl	8003638 <memset>
 80014f4:	f8d8 0008 	ldr.w	r0, [r8, #8]
 80014f8:	f7fe ffac 	bl	8000454 <__aeabi_f2d>
 80014fc:	460b      	mov	r3, r1
 80014fe:	4602      	mov	r2, r0
 8001500:	493c      	ldr	r1, [pc, #240]	; (80015f4 <main+0x2b4>)
 8001502:	a81c      	add	r0, sp, #112	; 0x70
 8001504:	f002 f8a0 	bl	8003648 <siprintf>
 8001508:	a91c      	add	r1, sp, #112	; 0x70
 800150a:	a803      	add	r0, sp, #12
 800150c:	f002 f8bc 	bl	8003688 <strcat>
 8001510:	2280      	movs	r2, #128	; 0x80
 8001512:	2100      	movs	r1, #0
 8001514:	a81c      	add	r0, sp, #112	; 0x70
 8001516:	f002 f88f 	bl	8003638 <memset>
 800151a:	f8d8 000c 	ldr.w	r0, [r8, #12]
 800151e:	f7fe ff99 	bl	8000454 <__aeabi_f2d>
 8001522:	460b      	mov	r3, r1
 8001524:	4602      	mov	r2, r0
 8001526:	4934      	ldr	r1, [pc, #208]	; (80015f8 <main+0x2b8>)
 8001528:	a81c      	add	r0, sp, #112	; 0x70
 800152a:	f002 f88d 	bl	8003648 <siprintf>
 800152e:	a91c      	add	r1, sp, #112	; 0x70
 8001530:	a803      	add	r0, sp, #12
 8001532:	f002 f8a9 	bl	8003688 <strcat>
 8001536:	4931      	ldr	r1, [pc, #196]	; (80015fc <main+0x2bc>)
 8001538:	a803      	add	r0, sp, #12
 800153a:	f002 f8a5 	bl	8003688 <strcat>
 800153e:	4930      	ldr	r1, [pc, #192]	; (8001600 <main+0x2c0>)
 8001540:	a803      	add	r0, sp, #12
 8001542:	f002 f8a1 	bl	8003688 <strcat>
 8001546:	4921      	ldr	r1, [pc, #132]	; (80015cc <main+0x28c>)
 8001548:	a803      	add	r0, sp, #12
 800154a:	f002 f89d 	bl	8003688 <strcat>
 800154e:	492b      	ldr	r1, [pc, #172]	; (80015fc <main+0x2bc>)
 8001550:	a803      	add	r0, sp, #12
 8001552:	f002 f899 	bl	8003688 <strcat>
 8001556:	f44f 7280 	mov.w	r2, #256	; 0x100
 800155a:	2100      	movs	r1, #0
 800155c:	4829      	ldr	r0, [pc, #164]	; (8001604 <main+0x2c4>)
 800155e:	f002 f86b 	bl	8003638 <memset>
 8001562:	2000      	movs	r0, #0
 8001564:	f7ff fd72 	bl	800104c <set_usar1_irq>
 8001568:	a803      	add	r0, sp, #12
 800156a:	f7fe fe07 	bl	800017c <strlen>
 800156e:	2364      	movs	r3, #100	; 0x64
 8001570:	b282      	uxth	r2, r0
 8001572:	a903      	add	r1, sp, #12
 8001574:	4817      	ldr	r0, [pc, #92]	; (80015d4 <main+0x294>)
 8001576:	f001 fd79 	bl	800306c <HAL_UART_Transmit>
 800157a:	f7ff fd71 	bl	8001060 <get_usar1_irq>
 800157e:	2801      	cmp	r0, #1
 8001580:	d111      	bne.n	80015a6 <main+0x266>
 8001582:	f7ff fd6d 	bl	8001060 <get_usar1_irq>
 8001586:	2801      	cmp	r0, #1
 8001588:	d10b      	bne.n	80015a2 <main+0x262>
 800158a:	201e      	movs	r0, #30
 800158c:	f000 fa64 	bl	8001a58 <HAL_Delay>
 8001590:	481c      	ldr	r0, [pc, #112]	; (8001604 <main+0x2c4>)
 8001592:	f7fe fdf3 	bl	800017c <strlen>
 8001596:	230a      	movs	r3, #10
 8001598:	b282      	uxth	r2, r0
 800159a:	491a      	ldr	r1, [pc, #104]	; (8001604 <main+0x2c4>)
 800159c:	480d      	ldr	r0, [pc, #52]	; (80015d4 <main+0x294>)
 800159e:	f001 fdba 	bl	8003116 <HAL_UART_Receive>
 80015a2:	2304      	movs	r3, #4
 80015a4:	e782      	b.n	80014ac <main+0x16c>
 80015a6:	2f32      	cmp	r7, #50	; 0x32
 80015a8:	d8eb      	bhi.n	8001582 <main+0x242>
 80015aa:	2001      	movs	r0, #1
 80015ac:	f000 fa54 	bl	8001a58 <HAL_Delay>
 80015b0:	3701      	adds	r7, #1
 80015b2:	e7e2      	b.n	800157a <main+0x23a>
 80015b4:	2306      	movs	r3, #6
 80015b6:	e779      	b.n	80014ac <main+0x16c>
 80015b8:	2305      	movs	r3, #5
 80015ba:	e777      	b.n	80014ac <main+0x16c>
 80015bc:	b672      	cpsid	i
 80015be:	e7fe      	b.n	80015be <main+0x27e>
 80015c0:	2000034c 	.word	0x2000034c
 80015c4:	40020000 	.word	0x40020000
 80015c8:	20000090 	.word	0x20000090
 80015cc:	200000a0 	.word	0x200000a0
 80015d0:	20000414 	.word	0x20000414
 80015d4:	200003d0 	.word	0x200003d0
 80015d8:	20000304 	.word	0x20000304
 80015dc:	200002b0 	.word	0x200002b0
 80015e0:	08003f01 	.word	0x08003f01
 80015e4:	08003f0d 	.word	0x08003f0d
 80015e8:	08003f1b 	.word	0x08003f1b
 80015ec:	08003f29 	.word	0x08003f29
 80015f0:	08003f2b 	.word	0x08003f2b
 80015f4:	08003f31 	.word	0x08003f31
 80015f8:	08003f39 	.word	0x08003f39
 80015fc:	08003f41 	.word	0x08003f41
 8001600:	08003f44 	.word	0x08003f44
 8001604:	200001a0 	.word	0x200001a0
 8001608:	200002a0 	.word	0x200002a0

0800160c <Error_Handler>:
 800160c:	b672      	cpsid	i
 800160e:	e7fe      	b.n	800160e <Error_Handler+0x2>

08001610 <HAL_MspInit>:
 8001610:	2007      	movs	r0, #7
 8001612:	4b10      	ldr	r3, [pc, #64]	; (8001654 <HAL_MspInit+0x44>)
 8001614:	b084      	sub	sp, #16
 8001616:	6a5a      	ldr	r2, [r3, #36]	; 0x24
 8001618:	f042 4200 	orr.w	r2, r2, #2147483648	; 0x80000000
 800161c:	625a      	str	r2, [r3, #36]	; 0x24
 800161e:	6a5a      	ldr	r2, [r3, #36]	; 0x24
 8001620:	f002 4200 	and.w	r2, r2, #2147483648	; 0x80000000
 8001624:	9201      	str	r2, [sp, #4]
 8001626:	9a01      	ldr	r2, [sp, #4]
 8001628:	6a1a      	ldr	r2, [r3, #32]
 800162a:	f042 0201 	orr.w	r2, r2, #1
 800162e:	621a      	str	r2, [r3, #32]
 8001630:	6a1a      	ldr	r2, [r3, #32]
 8001632:	f002 0201 	and.w	r2, r2, #1
 8001636:	9202      	str	r2, [sp, #8]
 8001638:	9a02      	ldr	r2, [sp, #8]
 800163a:	6a5a      	ldr	r2, [r3, #36]	; 0x24
 800163c:	f042 5280 	orr.w	r2, r2, #268435456	; 0x10000000
 8001640:	625a      	str	r2, [r3, #36]	; 0x24
 8001642:	6a5b      	ldr	r3, [r3, #36]	; 0x24
 8001644:	f003 5380 	and.w	r3, r3, #268435456	; 0x10000000
 8001648:	9303      	str	r3, [sp, #12]
 800164a:	9b03      	ldr	r3, [sp, #12]
 800164c:	b004      	add	sp, #16
 800164e:	f000 ba15 	b.w	8001a7c <HAL_NVIC_SetPriorityGrouping>
 8001652:	bf00      	nop
 8001654:	40023800 	.word	0x40023800

08001658 <NMI_Handler>:
 8001658:	e7fe      	b.n	8001658 <NMI_Handler>

0800165a <HardFault_Handler>:
 800165a:	e7fe      	b.n	800165a <HardFault_Handler>

0800165c <MemManage_Handler>:
 800165c:	e7fe      	b.n	800165c <MemManage_Handler>

0800165e <BusFault_Handler>:
 800165e:	e7fe      	b.n	800165e <BusFault_Handler>

08001660 <UsageFault_Handler>:
 8001660:	e7fe      	b.n	8001660 <UsageFault_Handler>

08001662 <SVC_Handler>:
 8001662:	4770      	bx	lr

08001664 <DebugMon_Handler>:
 8001664:	4770      	bx	lr

08001666 <PendSV_Handler>:
 8001666:	4770      	bx	lr

08001668 <SysTick_Handler>:
 8001668:	f000 b9e4 	b.w	8001a34 <HAL_IncTick>

0800166c <USART1_IRQHandler>:
 800166c:	4823      	ldr	r0, [pc, #140]	; (80016fc <USART1_IRQHandler+0x90>)
 800166e:	b510      	push	{r4, lr}
 8001670:	6803      	ldr	r3, [r0, #0]
 8001672:	4604      	mov	r4, r0
 8001674:	681a      	ldr	r2, [r3, #0]
 8001676:	68d9      	ldr	r1, [r3, #12]
 8001678:	f012 0f0f 	tst.w	r2, #15
 800167c:	695b      	ldr	r3, [r3, #20]
 800167e:	d109      	bne.n	8001694 <USART1_IRQHandler+0x28>
 8001680:	f7ff fd02 	bl	8001088 <USART1_SendIT>
 8001684:	481d      	ldr	r0, [pc, #116]	; (80016fc <USART1_IRQHandler+0x90>)
 8001686:	f7ff fd15 	bl	80010b4 <USART1_Enable_IT>
 800168a:	e8bd 4010 	ldmia.w	sp!, {r4, lr}
 800168e:	481b      	ldr	r0, [pc, #108]	; (80016fc <USART1_IRQHandler+0x90>)
 8001690:	f001 be22 	b.w	80032d8 <HAL_UART_IRQHandler>
 8001694:	f003 0301 	and.w	r3, r3, #1
 8001698:	f401 7090 	and.w	r0, r1, #288	; 0x120
 800169c:	4318      	orrs	r0, r3
 800169e:	d0f1      	beq.n	8001684 <USART1_IRQHandler+0x18>
 80016a0:	07d0      	lsls	r0, r2, #31
 80016a2:	d505      	bpl.n	80016b0 <USART1_IRQHandler+0x44>
 80016a4:	05c8      	lsls	r0, r1, #23
 80016a6:	bf42      	ittt	mi
 80016a8:	6c20      	ldrmi	r0, [r4, #64]	; 0x40
 80016aa:	f040 0001 	orrmi.w	r0, r0, #1
 80016ae:	6420      	strmi	r0, [r4, #64]	; 0x40
 80016b0:	0750      	lsls	r0, r2, #29
 80016b2:	d504      	bpl.n	80016be <USART1_IRQHandler+0x52>
 80016b4:	b11b      	cbz	r3, 80016be <USART1_IRQHandler+0x52>
 80016b6:	6c20      	ldr	r0, [r4, #64]	; 0x40
 80016b8:	f040 0002 	orr.w	r0, r0, #2
 80016bc:	6420      	str	r0, [r4, #64]	; 0x40
 80016be:	0790      	lsls	r0, r2, #30
 80016c0:	d504      	bpl.n	80016cc <USART1_IRQHandler+0x60>
 80016c2:	b11b      	cbz	r3, 80016cc <USART1_IRQHandler+0x60>
 80016c4:	6c20      	ldr	r0, [r4, #64]	; 0x40
 80016c6:	f040 0004 	orr.w	r0, r0, #4
 80016ca:	6420      	str	r0, [r4, #64]	; 0x40
 80016cc:	0710      	lsls	r0, r2, #28
 80016ce:	d507      	bpl.n	80016e0 <USART1_IRQHandler+0x74>
 80016d0:	f001 0020 	and.w	r0, r1, #32
 80016d4:	4303      	orrs	r3, r0
 80016d6:	bf1e      	ittt	ne
 80016d8:	6c23      	ldrne	r3, [r4, #64]	; 0x40
 80016da:	f043 0308 	orrne.w	r3, r3, #8
 80016de:	6423      	strne	r3, [r4, #64]	; 0x40
 80016e0:	6c23      	ldr	r3, [r4, #64]	; 0x40
 80016e2:	2b00      	cmp	r3, #0
 80016e4:	d0ce      	beq.n	8001684 <USART1_IRQHandler+0x18>
 80016e6:	0692      	lsls	r2, r2, #26
 80016e8:	d504      	bpl.n	80016f4 <USART1_IRQHandler+0x88>
 80016ea:	068b      	lsls	r3, r1, #26
 80016ec:	d502      	bpl.n	80016f4 <USART1_IRQHandler+0x88>
 80016ee:	4803      	ldr	r0, [pc, #12]	; (80016fc <USART1_IRQHandler+0x90>)
 80016f0:	f7ff fcca 	bl	8001088 <USART1_SendIT>
 80016f4:	2300      	movs	r3, #0
 80016f6:	6423      	str	r3, [r4, #64]	; 0x40
 80016f8:	e7c4      	b.n	8001684 <USART1_IRQHandler+0x18>
 80016fa:	bf00      	nop
 80016fc:	200003d0 	.word	0x200003d0

08001700 <UART4_IRQHandler>:
 8001700:	4801      	ldr	r0, [pc, #4]	; (8001708 <UART4_IRQHandler+0x8>)
 8001702:	f001 bde9 	b.w	80032d8 <HAL_UART_IRQHandler>
 8001706:	bf00      	nop
 8001708:	20000414 	.word	0x20000414

0800170c <DMA2_Channel3_IRQHandler>:
 800170c:	4801      	ldr	r0, [pc, #4]	; (8001714 <DMA2_Channel3_IRQHandler+0x8>)
 800170e:	f000 bae8 	b.w	8001ce2 <HAL_DMA_IRQHandler>
 8001712:	bf00      	nop
 8001714:	2000038c 	.word	0x2000038c

08001718 <_sbrk>:
 8001718:	4b0b      	ldr	r3, [pc, #44]	; (8001748 <_sbrk+0x30>)
 800171a:	4602      	mov	r2, r0
 800171c:	6819      	ldr	r1, [r3, #0]
 800171e:	b510      	push	{r4, lr}
 8001720:	b909      	cbnz	r1, 8001726 <_sbrk+0xe>
 8001722:	490a      	ldr	r1, [pc, #40]	; (800174c <_sbrk+0x34>)
 8001724:	6019      	str	r1, [r3, #0]
 8001726:	6818      	ldr	r0, [r3, #0]
 8001728:	4909      	ldr	r1, [pc, #36]	; (8001750 <_sbrk+0x38>)
 800172a:	4c0a      	ldr	r4, [pc, #40]	; (8001754 <_sbrk+0x3c>)
 800172c:	4402      	add	r2, r0
 800172e:	1b09      	subs	r1, r1, r4
 8001730:	428a      	cmp	r2, r1
 8001732:	d906      	bls.n	8001742 <_sbrk+0x2a>
 8001734:	f001 ff56 	bl	80035e4 <__errno>
 8001738:	230c      	movs	r3, #12
 800173a:	6003      	str	r3, [r0, #0]
 800173c:	f04f 30ff 	mov.w	r0, #4294967295
 8001740:	bd10      	pop	{r4, pc}
 8001742:	601a      	str	r2, [r3, #0]
 8001744:	e7fc      	b.n	8001740 <_sbrk+0x28>
 8001746:	bf00      	nop
 8001748:	200002a4 	.word	0x200002a4
 800174c:	20000470 	.word	0x20000470
 8001750:	20014000 	.word	0x20014000
 8001754:	00000400 	.word	0x00000400

08001758 <SystemInit>:
 8001758:	4770      	bx	lr
	...

0800175c <MX_TIM2_Init>:
 800175c:	b57f      	push	{r0, r1, r2, r3, r4, r5, r6, lr}
 800175e:	2210      	movs	r2, #16
 8001760:	2100      	movs	r1, #0
 8001762:	a802      	add	r0, sp, #8
 8001764:	f001 ff68 	bl	8003638 <memset>
 8001768:	221f      	movs	r2, #31
 800176a:	f04f 4180 	mov.w	r1, #1073741824	; 0x40000000
 800176e:	4814      	ldr	r0, [pc, #80]	; (80017c0 <MX_TIM2_Init+0x64>)
 8001770:	2300      	movs	r3, #0
 8001772:	e9c0 1200 	strd	r1, r2, [r0]
 8001776:	f64f 72fe 	movw	r2, #65534	; 0xfffe
 800177a:	e9cd 3300 	strd	r3, r3, [sp]
 800177e:	e9c0 2303 	strd	r2, r3, [r0, #12]
 8001782:	6083      	str	r3, [r0, #8]
 8001784:	6143      	str	r3, [r0, #20]
 8001786:	f001 fa9b 	bl	8002cc0 <HAL_TIM_Base_Init>
 800178a:	b108      	cbz	r0, 8001790 <MX_TIM2_Init+0x34>
 800178c:	f7ff ff3e 	bl	800160c <Error_Handler>
 8001790:	f44f 5380 	mov.w	r3, #4096	; 0x1000
 8001794:	480a      	ldr	r0, [pc, #40]	; (80017c0 <MX_TIM2_Init+0x64>)
 8001796:	a902      	add	r1, sp, #8
 8001798:	9302      	str	r3, [sp, #8]
 800179a:	f001 fadb 	bl	8002d54 <HAL_TIM_ConfigClockSource>
 800179e:	b108      	cbz	r0, 80017a4 <MX_TIM2_Init+0x48>
 80017a0:	f7ff ff34 	bl	800160c <Error_Handler>
 80017a4:	2300      	movs	r3, #0
 80017a6:	4669      	mov	r1, sp
 80017a8:	4805      	ldr	r0, [pc, #20]	; (80017c0 <MX_TIM2_Init+0x64>)
 80017aa:	e9cd 3300 	strd	r3, r3, [sp]
 80017ae:	f001 fb6f 	bl	8002e90 <HAL_TIMEx_MasterConfigSynchronization>
 80017b2:	b108      	cbz	r0, 80017b8 <MX_TIM2_Init+0x5c>
 80017b4:	f7ff ff2a 	bl	800160c <Error_Handler>
 80017b8:	b007      	add	sp, #28
 80017ba:	f85d fb04 	ldr.w	pc, [sp], #4
 80017be:	bf00      	nop
 80017c0:	2000034c 	.word	0x2000034c

080017c4 <HAL_TIM_Base_MspInit>:
 80017c4:	6803      	ldr	r3, [r0, #0]
 80017c6:	b082      	sub	sp, #8
 80017c8:	f1b3 4f80 	cmp.w	r3, #1073741824	; 0x40000000
 80017cc:	d10a      	bne.n	80017e4 <HAL_TIM_Base_MspInit+0x20>
 80017ce:	f503 330e 	add.w	r3, r3, #145408	; 0x23800
 80017d2:	6a5a      	ldr	r2, [r3, #36]	; 0x24
 80017d4:	f042 0201 	orr.w	r2, r2, #1
 80017d8:	625a      	str	r2, [r3, #36]	; 0x24
 80017da:	6a5b      	ldr	r3, [r3, #36]	; 0x24
 80017dc:	f003 0301 	and.w	r3, r3, #1
 80017e0:	9301      	str	r3, [sp, #4]
 80017e2:	9b01      	ldr	r3, [sp, #4]
 80017e4:	b002      	add	sp, #8
 80017e6:	4770      	bx	lr

080017e8 <delay_us>:
 80017e8:	2200      	movs	r2, #0
 80017ea:	4b03      	ldr	r3, [pc, #12]	; (80017f8 <delay_us+0x10>)
 80017ec:	681b      	ldr	r3, [r3, #0]
 80017ee:	625a      	str	r2, [r3, #36]	; 0x24
 80017f0:	6a5a      	ldr	r2, [r3, #36]	; 0x24
 80017f2:	4282      	cmp	r2, r0
 80017f4:	d3fc      	bcc.n	80017f0 <delay_us+0x8>
 80017f6:	4770      	bx	lr
 80017f8:	2000034c 	.word	0x2000034c

080017fc <MX_UART4_Init>:
 80017fc:	b508      	push	{r3, lr}
 80017fe:	f44f 5316 	mov.w	r3, #9600	; 0x2580
 8001802:	480a      	ldr	r0, [pc, #40]	; (800182c <MX_UART4_Init+0x30>)
 8001804:	4a0a      	ldr	r2, [pc, #40]	; (8001830 <MX_UART4_Init+0x34>)
 8001806:	e9c0 2300 	strd	r2, r3, [r0]
 800180a:	2300      	movs	r3, #0
 800180c:	220c      	movs	r2, #12
 800180e:	e9c0 3302 	strd	r3, r3, [r0, #8]
 8001812:	e9c0 2305 	strd	r2, r3, [r0, #20]
 8001816:	6103      	str	r3, [r0, #16]
 8001818:	61c3      	str	r3, [r0, #28]
 800181a:	f001 fbf9 	bl	8003010 <HAL_UART_Init>
 800181e:	b118      	cbz	r0, 8001828 <MX_UART4_Init+0x2c>
 8001820:	e8bd 4008 	ldmia.w	sp!, {r3, lr}
 8001824:	f7ff bef2 	b.w	800160c <Error_Handler>
 8001828:	bd08      	pop	{r3, pc}
 800182a:	bf00      	nop
 800182c:	20000414 	.word	0x20000414
 8001830:	40004c00 	.word	0x40004c00

08001834 <MX_USART1_UART_Init>:
 8001834:	b508      	push	{r3, lr}
 8001836:	f44f 5316 	mov.w	r3, #9600	; 0x2580
 800183a:	480a      	ldr	r0, [pc, #40]	; (8001864 <MX_USART1_UART_Init+0x30>)
 800183c:	4a0a      	ldr	r2, [pc, #40]	; (8001868 <MX_USART1_UART_Init+0x34>)
 800183e:	e9c0 2300 	strd	r2, r3, [r0]
 8001842:	2300      	movs	r3, #0
 8001844:	220c      	movs	r2, #12
 8001846:	e9c0 3302 	strd	r3, r3, [r0, #8]
 800184a:	e9c0 2305 	strd	r2, r3, [r0, #20]
 800184e:	6103      	str	r3, [r0, #16]
 8001850:	61c3      	str	r3, [r0, #28]
 8001852:	f001 fbdd 	bl	8003010 <HAL_UART_Init>
 8001856:	b118      	cbz	r0, 8001860 <MX_USART1_UART_Init+0x2c>
 8001858:	e8bd 4008 	ldmia.w	sp!, {r3, lr}
 800185c:	f7ff bed6 	b.w	800160c <Error_Handler>
 8001860:	bd08      	pop	{r3, pc}
 8001862:	bf00      	nop
 8001864:	200003d0 	.word	0x200003d0
 8001868:	40013800 	.word	0x40013800

0800186c <HAL_UART_MspInit>:
 800186c:	2214      	movs	r2, #20
 800186e:	b530      	push	{r4, r5, lr}
 8001870:	4605      	mov	r5, r0
 8001872:	b08b      	sub	sp, #44	; 0x2c
 8001874:	eb0d 0002 	add.w	r0, sp, r2
 8001878:	2100      	movs	r1, #0
 800187a:	f001 fedd 	bl	8003638 <memset>
 800187e:	682b      	ldr	r3, [r5, #0]
 8001880:	4a37      	ldr	r2, [pc, #220]	; (8001960 <HAL_UART_MspInit+0xf4>)
 8001882:	4293      	cmp	r3, r2
 8001884:	d140      	bne.n	8001908 <HAL_UART_MspInit+0x9c>
 8001886:	4b37      	ldr	r3, [pc, #220]	; (8001964 <HAL_UART_MspInit+0xf8>)
 8001888:	f44f 6140 	mov.w	r1, #3072	; 0xc00
 800188c:	6a5a      	ldr	r2, [r3, #36]	; 0x24
 800188e:	2001      	movs	r0, #1
 8001890:	f442 2200 	orr.w	r2, r2, #524288	; 0x80000
 8001894:	625a      	str	r2, [r3, #36]	; 0x24
 8001896:	6a5a      	ldr	r2, [r3, #36]	; 0x24
 8001898:	4c33      	ldr	r4, [pc, #204]	; (8001968 <HAL_UART_MspInit+0xfc>)
 800189a:	f402 2200 	and.w	r2, r2, #524288	; 0x80000
 800189e:	9201      	str	r2, [sp, #4]
 80018a0:	9a01      	ldr	r2, [sp, #4]
 80018a2:	69da      	ldr	r2, [r3, #28]
 80018a4:	f042 0204 	orr.w	r2, r2, #4
 80018a8:	61da      	str	r2, [r3, #28]
 80018aa:	69db      	ldr	r3, [r3, #28]
 80018ac:	f003 0304 	and.w	r3, r3, #4
 80018b0:	9302      	str	r3, [sp, #8]
 80018b2:	9b02      	ldr	r3, [sp, #8]
 80018b4:	2302      	movs	r3, #2
 80018b6:	e9cd 1305 	strd	r1, r3, [sp, #20]
 80018ba:	2303      	movs	r3, #3
 80018bc:	e9cd 0307 	strd	r0, r3, [sp, #28]
 80018c0:	2308      	movs	r3, #8
 80018c2:	482a      	ldr	r0, [pc, #168]	; (800196c <HAL_UART_MspInit+0x100>)
 80018c4:	a905      	add	r1, sp, #20
 80018c6:	9309      	str	r3, [sp, #36]	; 0x24
 80018c8:	f000 fa56 	bl	8001d78 <HAL_GPIO_Init>
 80018cc:	2300      	movs	r3, #0
 80018ce:	2280      	movs	r2, #128	; 0x80
 80018d0:	f8df c0a4 	ldr.w	ip, [pc, #164]	; 8001978 <HAL_UART_MspInit+0x10c>
 80018d4:	4620      	mov	r0, r4
 80018d6:	e9c4 c300 	strd	ip, r3, [r4]
 80018da:	e9c4 2303 	strd	r2, r3, [r4, #12]
 80018de:	e9c4 3305 	strd	r3, r3, [r4, #20]
 80018e2:	60a3      	str	r3, [r4, #8]
 80018e4:	61e3      	str	r3, [r4, #28]
 80018e6:	f000 f931 	bl	8001b4c <HAL_DMA_Init>
 80018ea:	b108      	cbz	r0, 80018f0 <HAL_UART_MspInit+0x84>
 80018ec:	f7ff fe8e 	bl	800160c <Error_Handler>
 80018f0:	2200      	movs	r2, #0
 80018f2:	2030      	movs	r0, #48	; 0x30
 80018f4:	4611      	mov	r1, r2
 80018f6:	63ac      	str	r4, [r5, #56]	; 0x38
 80018f8:	6265      	str	r5, [r4, #36]	; 0x24
 80018fa:	f000 f8d1 	bl	8001aa0 <HAL_NVIC_SetPriority>
 80018fe:	2030      	movs	r0, #48	; 0x30
 8001900:	f000 f900 	bl	8001b04 <HAL_NVIC_EnableIRQ>
 8001904:	b00b      	add	sp, #44	; 0x2c
 8001906:	bd30      	pop	{r4, r5, pc}
 8001908:	4a19      	ldr	r2, [pc, #100]	; (8001970 <HAL_UART_MspInit+0x104>)
 800190a:	4293      	cmp	r3, r2
 800190c:	d1fa      	bne.n	8001904 <HAL_UART_MspInit+0x98>
 800190e:	4b15      	ldr	r3, [pc, #84]	; (8001964 <HAL_UART_MspInit+0xf8>)
 8001910:	2400      	movs	r4, #0
 8001912:	6a1a      	ldr	r2, [r3, #32]
 8001914:	4817      	ldr	r0, [pc, #92]	; (8001974 <HAL_UART_MspInit+0x108>)
 8001916:	f442 4280 	orr.w	r2, r2, #16384	; 0x4000
 800191a:	621a      	str	r2, [r3, #32]
 800191c:	6a1a      	ldr	r2, [r3, #32]
 800191e:	a905      	add	r1, sp, #20
 8001920:	f402 4280 	and.w	r2, r2, #16384	; 0x4000
 8001924:	9203      	str	r2, [sp, #12]
 8001926:	9a03      	ldr	r2, [sp, #12]
 8001928:	69da      	ldr	r2, [r3, #28]
 800192a:	f042 0201 	orr.w	r2, r2, #1
 800192e:	61da      	str	r2, [r3, #28]
 8001930:	69db      	ldr	r3, [r3, #28]
 8001932:	f44f 62c0 	mov.w	r2, #1536	; 0x600
 8001936:	f003 0301 	and.w	r3, r3, #1
 800193a:	9304      	str	r3, [sp, #16]
 800193c:	9b04      	ldr	r3, [sp, #16]
 800193e:	2302      	movs	r3, #2
 8001940:	e9cd 2305 	strd	r2, r3, [sp, #20]
 8001944:	2303      	movs	r3, #3
 8001946:	e9cd 4307 	strd	r4, r3, [sp, #28]
 800194a:	2307      	movs	r3, #7
 800194c:	9309      	str	r3, [sp, #36]	; 0x24
 800194e:	f000 fa13 	bl	8001d78 <HAL_GPIO_Init>
 8001952:	2025      	movs	r0, #37	; 0x25
 8001954:	4622      	mov	r2, r4
 8001956:	4621      	mov	r1, r4
 8001958:	f000 f8a2 	bl	8001aa0 <HAL_NVIC_SetPriority>
 800195c:	2025      	movs	r0, #37	; 0x25
 800195e:	e7cf      	b.n	8001900 <HAL_UART_MspInit+0x94>
 8001960:	40004c00 	.word	0x40004c00
 8001964:	40023800 	.word	0x40023800
 8001968:	2000038c 	.word	0x2000038c
 800196c:	40020800 	.word	0x40020800
 8001970:	40013800 	.word	0x40013800
 8001974:	40020000 	.word	0x40020000
 8001978:	40026430 	.word	0x40026430

0800197c <Reset_Handler>:
 800197c:	480c      	ldr	r0, [pc, #48]	; (80019b0 <LoopFillZerobss+0x12>)
 800197e:	490d      	ldr	r1, [pc, #52]	; (80019b4 <LoopFillZerobss+0x16>)
 8001980:	4a0d      	ldr	r2, [pc, #52]	; (80019b8 <LoopFillZerobss+0x1a>)
 8001982:	2300      	movs	r3, #0
 8001984:	e002      	b.n	800198c <LoopCopyDataInit>

08001986 <CopyDataInit>:
 8001986:	58d4      	ldr	r4, [r2, r3]
 8001988:	50c4      	str	r4, [r0, r3]
 800198a:	3304      	adds	r3, #4

0800198c <LoopCopyDataInit>:
 800198c:	18c4      	adds	r4, r0, r3
 800198e:	428c      	cmp	r4, r1
 8001990:	d3f9      	bcc.n	8001986 <CopyDataInit>
 8001992:	4a0a      	ldr	r2, [pc, #40]	; (80019bc <LoopFillZerobss+0x1e>)
 8001994:	4c0a      	ldr	r4, [pc, #40]	; (80019c0 <LoopFillZerobss+0x22>)
 8001996:	2300      	movs	r3, #0
 8001998:	e001      	b.n	800199e <LoopFillZerobss>

0800199a <FillZerobss>:
 800199a:	6013      	str	r3, [r2, #0]
 800199c:	3204      	adds	r2, #4

0800199e <LoopFillZerobss>:
 800199e:	42a2      	cmp	r2, r4
 80019a0:	d3fb      	bcc.n	800199a <FillZerobss>
 80019a2:	f7ff fed9 	bl	8001758 <SystemInit>
 80019a6:	f001 fe23 	bl	80035f0 <__libc_init_array>
 80019aa:	f7ff fcc9 	bl	8001340 <main>
 80019ae:	4770      	bx	lr
 80019b0:	20000000 	.word	0x20000000
 80019b4:	20000070 	.word	0x20000070
 80019b8:	08003fac 	.word	0x08003fac
 80019bc:	20000070 	.word	0x20000070
 80019c0:	2000046c 	.word	0x2000046c

080019c4 <ADC1_IRQHandler>:
 80019c4:	e7fe      	b.n	80019c4 <ADC1_IRQHandler>
	...

080019c8 <HAL_InitTick>:
 80019c8:	b538      	push	{r3, r4, r5, lr}
 80019ca:	4b0f      	ldr	r3, [pc, #60]	; (8001a08 <HAL_InitTick+0x40>)
 80019cc:	4605      	mov	r5, r0
 80019ce:	6818      	ldr	r0, [r3, #0]
 80019d0:	b908      	cbnz	r0, 80019d6 <HAL_InitTick+0xe>
 80019d2:	2001      	movs	r0, #1
 80019d4:	bd38      	pop	{r3, r4, r5, pc}
 80019d6:	f44f 737a 	mov.w	r3, #1000	; 0x3e8
 80019da:	fbb3 f3f0 	udiv	r3, r3, r0
 80019de:	4a0b      	ldr	r2, [pc, #44]	; (8001a0c <HAL_InitTick+0x44>)
 80019e0:	6810      	ldr	r0, [r2, #0]
 80019e2:	fbb0 f0f3 	udiv	r0, r0, r3
 80019e6:	f000 f89b 	bl	8001b20 <HAL_SYSTICK_Config>
 80019ea:	4604      	mov	r4, r0
 80019ec:	2800      	cmp	r0, #0
 80019ee:	d1f0      	bne.n	80019d2 <HAL_InitTick+0xa>
 80019f0:	2d0f      	cmp	r5, #15
 80019f2:	d8ee      	bhi.n	80019d2 <HAL_InitTick+0xa>
 80019f4:	4602      	mov	r2, r0
 80019f6:	4629      	mov	r1, r5
 80019f8:	f04f 30ff 	mov.w	r0, #4294967295
 80019fc:	f000 f850 	bl	8001aa0 <HAL_NVIC_SetPriority>
 8001a00:	4b03      	ldr	r3, [pc, #12]	; (8001a10 <HAL_InitTick+0x48>)
 8001a02:	4620      	mov	r0, r4
 8001a04:	601d      	str	r5, [r3, #0]
 8001a06:	e7e5      	b.n	80019d4 <HAL_InitTick+0xc>
 8001a08:	20000004 	.word	0x20000004
 8001a0c:	20000000 	.word	0x20000000
 8001a10:	20000008 	.word	0x20000008

08001a14 <HAL_Init>:
 8001a14:	b510      	push	{r4, lr}
 8001a16:	2003      	movs	r0, #3
 8001a18:	f000 f830 	bl	8001a7c <HAL_NVIC_SetPriorityGrouping>
 8001a1c:	2000      	movs	r0, #0
 8001a1e:	f7ff ffd3 	bl	80019c8 <HAL_InitTick>
 8001a22:	4604      	mov	r4, r0
 8001a24:	b918      	cbnz	r0, 8001a2e <HAL_Init+0x1a>
 8001a26:	f7ff fdf3 	bl	8001610 <HAL_MspInit>
 8001a2a:	4620      	mov	r0, r4
 8001a2c:	bd10      	pop	{r4, pc}
 8001a2e:	2401      	movs	r4, #1
 8001a30:	e7fb      	b.n	8001a2a <HAL_Init+0x16>
	...

08001a34 <HAL_IncTick>:
 8001a34:	4a03      	ldr	r2, [pc, #12]	; (8001a44 <HAL_IncTick+0x10>)
 8001a36:	4904      	ldr	r1, [pc, #16]	; (8001a48 <HAL_IncTick+0x14>)
 8001a38:	6813      	ldr	r3, [r2, #0]
 8001a3a:	6809      	ldr	r1, [r1, #0]
 8001a3c:	440b      	add	r3, r1
 8001a3e:	6013      	str	r3, [r2, #0]
 8001a40:	4770      	bx	lr
 8001a42:	bf00      	nop
 8001a44:	20000458 	.word	0x20000458
 8001a48:	20000004 	.word	0x20000004

08001a4c <HAL_GetTick>:
 8001a4c:	4b01      	ldr	r3, [pc, #4]	; (8001a54 <HAL_GetTick+0x8>)
 8001a4e:	6818      	ldr	r0, [r3, #0]
 8001a50:	4770      	bx	lr
 8001a52:	bf00      	nop
 8001a54:	20000458 	.word	0x20000458

08001a58 <HAL_Delay>:
 8001a58:	b538      	push	{r3, r4, r5, lr}
 8001a5a:	4604      	mov	r4, r0
 8001a5c:	f7ff fff6 	bl	8001a4c <HAL_GetTick>
 8001a60:	4605      	mov	r5, r0
 8001a62:	1c63      	adds	r3, r4, #1
 8001a64:	bf1e      	ittt	ne
 8001a66:	4b04      	ldrne	r3, [pc, #16]	; (8001a78 <HAL_Delay+0x20>)
 8001a68:	681b      	ldrne	r3, [r3, #0]
 8001a6a:	18e4      	addne	r4, r4, r3
 8001a6c:	f7ff ffee 	bl	8001a4c <HAL_GetTick>
 8001a70:	1b43      	subs	r3, r0, r5
 8001a72:	42a3      	cmp	r3, r4
 8001a74:	d3fa      	bcc.n	8001a6c <HAL_Delay+0x14>
 8001a76:	bd38      	pop	{r3, r4, r5, pc}
 8001a78:	20000004 	.word	0x20000004

08001a7c <HAL_NVIC_SetPriorityGrouping>:
 8001a7c:	4907      	ldr	r1, [pc, #28]	; (8001a9c <HAL_NVIC_SetPriorityGrouping+0x20>)
 8001a7e:	0203      	lsls	r3, r0, #8
 8001a80:	68ca      	ldr	r2, [r1, #12]
 8001a82:	f403 63e0 	and.w	r3, r3, #1792	; 0x700
 8001a86:	f422 62e0 	bic.w	r2, r2, #1792	; 0x700
 8001a8a:	0412      	lsls	r2, r2, #16
 8001a8c:	0c12      	lsrs	r2, r2, #16
 8001a8e:	4313      	orrs	r3, r2
 8001a90:	f043 63bf 	orr.w	r3, r3, #100139008	; 0x5f80000
 8001a94:	f443 3300 	orr.w	r3, r3, #131072	; 0x20000
 8001a98:	60cb      	str	r3, [r1, #12]
 8001a9a:	4770      	bx	lr
 8001a9c:	e000ed00 	.word	0xe000ed00

08001aa0 <HAL_NVIC_SetPriority>:
 8001aa0:	4b16      	ldr	r3, [pc, #88]	; (8001afc <HAL_NVIC_SetPriority+0x5c>)
 8001aa2:	b530      	push	{r4, r5, lr}
 8001aa4:	68dc      	ldr	r4, [r3, #12]
 8001aa6:	f3c4 2402 	ubfx	r4, r4, #8, #3
 8001aaa:	f1c4 0307 	rsb	r3, r4, #7
 8001aae:	1d25      	adds	r5, r4, #4
 8001ab0:	2b04      	cmp	r3, #4
 8001ab2:	bf28      	it	cs
 8001ab4:	2304      	movcs	r3, #4
 8001ab6:	2d06      	cmp	r5, #6
 8001ab8:	f04f 35ff 	mov.w	r5, #4294967295
 8001abc:	bf98      	it	ls
 8001abe:	2400      	movls	r4, #0
 8001ac0:	fa05 f303 	lsl.w	r3, r5, r3
 8001ac4:	bf88      	it	hi
 8001ac6:	3c03      	subhi	r4, #3
 8001ac8:	ea21 0303 	bic.w	r3, r1, r3
 8001acc:	40a3      	lsls	r3, r4
 8001ace:	fa05 f404 	lsl.w	r4, r5, r4
 8001ad2:	ea22 0204 	bic.w	r2, r2, r4
 8001ad6:	2800      	cmp	r0, #0
 8001ad8:	ea43 0302 	orr.w	r3, r3, r2
 8001adc:	bfac      	ite	ge
 8001ade:	f100 4060 	addge.w	r0, r0, #3758096384	; 0xe0000000
 8001ae2:	4a07      	ldrlt	r2, [pc, #28]	; (8001b00 <HAL_NVIC_SetPriority+0x60>)
 8001ae4:	ea4f 1303 	mov.w	r3, r3, lsl #4
 8001ae8:	b2db      	uxtb	r3, r3
 8001aea:	bfab      	itete	ge
 8001aec:	f500 4061 	addge.w	r0, r0, #57600	; 0xe100
 8001af0:	f000 000f 	andlt.w	r0, r0, #15
 8001af4:	f880 3300 	strbge.w	r3, [r0, #768]	; 0x300
 8001af8:	5413      	strblt	r3, [r2, r0]
 8001afa:	bd30      	pop	{r4, r5, pc}
 8001afc:	e000ed00 	.word	0xe000ed00
 8001b00:	e000ed14 	.word	0xe000ed14

08001b04 <HAL_NVIC_EnableIRQ>:
 8001b04:	2800      	cmp	r0, #0
 8001b06:	db08      	blt.n	8001b1a <HAL_NVIC_EnableIRQ+0x16>
 8001b08:	2301      	movs	r3, #1
 8001b0a:	0942      	lsrs	r2, r0, #5
 8001b0c:	f000 001f 	and.w	r0, r0, #31
 8001b10:	fa03 f000 	lsl.w	r0, r3, r0
 8001b14:	4b01      	ldr	r3, [pc, #4]	; (8001b1c <HAL_NVIC_EnableIRQ+0x18>)
 8001b16:	f843 0022 	str.w	r0, [r3, r2, lsl #2]
 8001b1a:	4770      	bx	lr
 8001b1c:	e000e100 	.word	0xe000e100

08001b20 <HAL_SYSTICK_Config>:
 8001b20:	3801      	subs	r0, #1
 8001b22:	f1b0 7f80 	cmp.w	r0, #16777216	; 0x1000000
 8001b26:	d20a      	bcs.n	8001b3e <HAL_SYSTICK_Config+0x1e>
 8001b28:	21f0      	movs	r1, #240	; 0xf0
 8001b2a:	4b06      	ldr	r3, [pc, #24]	; (8001b44 <HAL_SYSTICK_Config+0x24>)
 8001b2c:	4a06      	ldr	r2, [pc, #24]	; (8001b48 <HAL_SYSTICK_Config+0x28>)
 8001b2e:	6058      	str	r0, [r3, #4]
 8001b30:	f882 1023 	strb.w	r1, [r2, #35]	; 0x23
 8001b34:	2000      	movs	r0, #0
 8001b36:	2207      	movs	r2, #7
 8001b38:	6098      	str	r0, [r3, #8]
 8001b3a:	601a      	str	r2, [r3, #0]
 8001b3c:	4770      	bx	lr
 8001b3e:	2001      	movs	r0, #1
 8001b40:	4770      	bx	lr
 8001b42:	bf00      	nop
 8001b44:	e000e010 	.word	0xe000e010
 8001b48:	e000ed00 	.word	0xe000ed00

08001b4c <HAL_DMA_Init>:
 8001b4c:	b510      	push	{r4, lr}
 8001b4e:	2800      	cmp	r0, #0
 8001b50:	d035      	beq.n	8001bbe <HAL_DMA_Init+0x72>
 8001b52:	6801      	ldr	r1, [r0, #0]
 8001b54:	4b1b      	ldr	r3, [pc, #108]	; (8001bc4 <HAL_DMA_Init+0x78>)
 8001b56:	2414      	movs	r4, #20
 8001b58:	4299      	cmp	r1, r3
 8001b5a:	d828      	bhi.n	8001bae <HAL_DMA_Init+0x62>
 8001b5c:	4a1a      	ldr	r2, [pc, #104]	; (8001bc8 <HAL_DMA_Init+0x7c>)
 8001b5e:	f2a3 4307 	subw	r3, r3, #1031	; 0x407
 8001b62:	440a      	add	r2, r1
 8001b64:	fbb2 f2f4 	udiv	r2, r2, r4
 8001b68:	0092      	lsls	r2, r2, #2
 8001b6a:	6402      	str	r2, [r0, #64]	; 0x40
 8001b6c:	63c3      	str	r3, [r0, #60]	; 0x3c
 8001b6e:	2302      	movs	r3, #2
 8001b70:	f880 3021 	strb.w	r3, [r0, #33]	; 0x21
 8001b74:	e9d0 3401 	ldrd	r3, r4, [r0, #4]
 8001b78:	4323      	orrs	r3, r4
 8001b7a:	68c4      	ldr	r4, [r0, #12]
 8001b7c:	680a      	ldr	r2, [r1, #0]
 8001b7e:	4323      	orrs	r3, r4
 8001b80:	6904      	ldr	r4, [r0, #16]
 8001b82:	f422 42ff 	bic.w	r2, r2, #32640	; 0x7f80
 8001b86:	4323      	orrs	r3, r4
 8001b88:	6944      	ldr	r4, [r0, #20]
 8001b8a:	f022 0270 	bic.w	r2, r2, #112	; 0x70
 8001b8e:	4323      	orrs	r3, r4
 8001b90:	6984      	ldr	r4, [r0, #24]
 8001b92:	4323      	orrs	r3, r4
 8001b94:	69c4      	ldr	r4, [r0, #28]
 8001b96:	4323      	orrs	r3, r4
 8001b98:	4313      	orrs	r3, r2
 8001b9a:	600b      	str	r3, [r1, #0]
 8001b9c:	2201      	movs	r2, #1
 8001b9e:	2300      	movs	r3, #0
 8001ba0:	6383      	str	r3, [r0, #56]	; 0x38
 8001ba2:	f880 3020 	strb.w	r3, [r0, #32]
 8001ba6:	f880 2021 	strb.w	r2, [r0, #33]	; 0x21
 8001baa:	4618      	mov	r0, r3
 8001bac:	bd10      	pop	{r4, pc}
 8001bae:	4b07      	ldr	r3, [pc, #28]	; (8001bcc <HAL_DMA_Init+0x80>)
 8001bb0:	440b      	add	r3, r1
 8001bb2:	fbb3 f3f4 	udiv	r3, r3, r4
 8001bb6:	009b      	lsls	r3, r3, #2
 8001bb8:	6403      	str	r3, [r0, #64]	; 0x40
 8001bba:	4b05      	ldr	r3, [pc, #20]	; (8001bd0 <HAL_DMA_Init+0x84>)
 8001bbc:	e7d6      	b.n	8001b6c <HAL_DMA_Init+0x20>
 8001bbe:	2001      	movs	r0, #1
 8001bc0:	e7f4      	b.n	8001bac <HAL_DMA_Init+0x60>
 8001bc2:	bf00      	nop
 8001bc4:	40026407 	.word	0x40026407
 8001bc8:	bffd9ff8 	.word	0xbffd9ff8
 8001bcc:	bffd9bf8 	.word	0xbffd9bf8
 8001bd0:	40026400 	.word	0x40026400

08001bd4 <HAL_DMA_Start_IT>:
 8001bd4:	b5f0      	push	{r4, r5, r6, r7, lr}
 8001bd6:	f890 4020 	ldrb.w	r4, [r0, #32]
 8001bda:	2c01      	cmp	r4, #1
 8001bdc:	d036      	beq.n	8001c4c <HAL_DMA_Start_IT+0x78>
 8001bde:	2401      	movs	r4, #1
 8001be0:	f880 4020 	strb.w	r4, [r0, #32]
 8001be4:	f890 4021 	ldrb.w	r4, [r0, #33]	; 0x21
 8001be8:	2600      	movs	r6, #0
 8001bea:	2c01      	cmp	r4, #1
 8001bec:	b2e5      	uxtb	r5, r4
 8001bee:	f04f 0402 	mov.w	r4, #2
 8001bf2:	d129      	bne.n	8001c48 <HAL_DMA_Start_IT+0x74>
 8001bf4:	f880 4021 	strb.w	r4, [r0, #33]	; 0x21
 8001bf8:	6804      	ldr	r4, [r0, #0]
 8001bfa:	6386      	str	r6, [r0, #56]	; 0x38
 8001bfc:	6826      	ldr	r6, [r4, #0]
 8001bfe:	f026 0601 	bic.w	r6, r6, #1
 8001c02:	6026      	str	r6, [r4, #0]
 8001c04:	e9d0 670f 	ldrd	r6, r7, [r0, #60]	; 0x3c
 8001c08:	f007 071c 	and.w	r7, r7, #28
 8001c0c:	40bd      	lsls	r5, r7
 8001c0e:	6075      	str	r5, [r6, #4]
 8001c10:	6063      	str	r3, [r4, #4]
 8001c12:	6843      	ldr	r3, [r0, #4]
 8001c14:	2b10      	cmp	r3, #16
 8001c16:	6ac3      	ldr	r3, [r0, #44]	; 0x2c
 8001c18:	bf0b      	itete	eq
 8001c1a:	60a2      	streq	r2, [r4, #8]
 8001c1c:	60a1      	strne	r1, [r4, #8]
 8001c1e:	60e1      	streq	r1, [r4, #12]
 8001c20:	60e2      	strne	r2, [r4, #12]
 8001c22:	b14b      	cbz	r3, 8001c38 <HAL_DMA_Start_IT+0x64>
 8001c24:	6823      	ldr	r3, [r4, #0]
 8001c26:	f043 030e 	orr.w	r3, r3, #14
 8001c2a:	2000      	movs	r0, #0
 8001c2c:	6023      	str	r3, [r4, #0]
 8001c2e:	6823      	ldr	r3, [r4, #0]
 8001c30:	f043 0301 	orr.w	r3, r3, #1
 8001c34:	6023      	str	r3, [r4, #0]
 8001c36:	bdf0      	pop	{r4, r5, r6, r7, pc}
 8001c38:	6823      	ldr	r3, [r4, #0]
 8001c3a:	f023 0304 	bic.w	r3, r3, #4
 8001c3e:	6023      	str	r3, [r4, #0]
 8001c40:	6823      	ldr	r3, [r4, #0]
 8001c42:	f043 030a 	orr.w	r3, r3, #10
 8001c46:	e7f0      	b.n	8001c2a <HAL_DMA_Start_IT+0x56>
 8001c48:	f880 6020 	strb.w	r6, [r0, #32]
 8001c4c:	2002      	movs	r0, #2
 8001c4e:	e7f2      	b.n	8001c36 <HAL_DMA_Start_IT+0x62>

08001c50 <HAL_DMA_Abort>:
 8001c50:	f890 3021 	ldrb.w	r3, [r0, #33]	; 0x21
 8001c54:	2b02      	cmp	r3, #2
 8001c56:	d006      	beq.n	8001c66 <HAL_DMA_Abort+0x16>
 8001c58:	2304      	movs	r3, #4
 8001c5a:	6383      	str	r3, [r0, #56]	; 0x38
 8001c5c:	2300      	movs	r3, #0
 8001c5e:	f880 3020 	strb.w	r3, [r0, #32]
 8001c62:	2001      	movs	r0, #1
 8001c64:	4770      	bx	lr
 8001c66:	6803      	ldr	r3, [r0, #0]
 8001c68:	681a      	ldr	r2, [r3, #0]
 8001c6a:	f022 020e 	bic.w	r2, r2, #14
 8001c6e:	601a      	str	r2, [r3, #0]
 8001c70:	681a      	ldr	r2, [r3, #0]
 8001c72:	f022 0201 	bic.w	r2, r2, #1
 8001c76:	601a      	str	r2, [r3, #0]
 8001c78:	2201      	movs	r2, #1
 8001c7a:	e9d0 130f 	ldrd	r1, r3, [r0, #60]	; 0x3c
 8001c7e:	f003 031c 	and.w	r3, r3, #28
 8001c82:	fa02 f303 	lsl.w	r3, r2, r3
 8001c86:	604b      	str	r3, [r1, #4]
 8001c88:	2300      	movs	r3, #0
 8001c8a:	f880 2021 	strb.w	r2, [r0, #33]	; 0x21
 8001c8e:	f880 3020 	strb.w	r3, [r0, #32]
 8001c92:	4618      	mov	r0, r3
 8001c94:	4770      	bx	lr

08001c96 <HAL_DMA_Abort_IT>:
 8001c96:	b510      	push	{r4, lr}
 8001c98:	f890 2021 	ldrb.w	r2, [r0, #33]	; 0x21
 8001c9c:	2a02      	cmp	r2, #2
 8001c9e:	d003      	beq.n	8001ca8 <HAL_DMA_Abort_IT+0x12>
 8001ca0:	2204      	movs	r2, #4
 8001ca2:	6382      	str	r2, [r0, #56]	; 0x38
 8001ca4:	2001      	movs	r0, #1
 8001ca6:	bd10      	pop	{r4, pc}
 8001ca8:	6802      	ldr	r2, [r0, #0]
 8001caa:	6b43      	ldr	r3, [r0, #52]	; 0x34
 8001cac:	6811      	ldr	r1, [r2, #0]
 8001cae:	f021 010e 	bic.w	r1, r1, #14
 8001cb2:	6011      	str	r1, [r2, #0]
 8001cb4:	6811      	ldr	r1, [r2, #0]
 8001cb6:	f021 0101 	bic.w	r1, r1, #1
 8001cba:	6011      	str	r1, [r2, #0]
 8001cbc:	2101      	movs	r1, #1
 8001cbe:	e9d0 420f 	ldrd	r4, r2, [r0, #60]	; 0x3c
 8001cc2:	f002 021c 	and.w	r2, r2, #28
 8001cc6:	fa01 f202 	lsl.w	r2, r1, r2
 8001cca:	6062      	str	r2, [r4, #4]
 8001ccc:	2400      	movs	r4, #0
 8001cce:	f880 1021 	strb.w	r1, [r0, #33]	; 0x21
 8001cd2:	f880 4020 	strb.w	r4, [r0, #32]
 8001cd6:	b113      	cbz	r3, 8001cde <HAL_DMA_Abort_IT+0x48>
 8001cd8:	4798      	blx	r3
 8001cda:	4620      	mov	r0, r4
 8001cdc:	e7e3      	b.n	8001ca6 <HAL_DMA_Abort_IT+0x10>
 8001cde:	4618      	mov	r0, r3
 8001ce0:	e7e1      	b.n	8001ca6 <HAL_DMA_Abort_IT+0x10>

08001ce2 <HAL_DMA_IRQHandler>:
 8001ce2:	b470      	push	{r4, r5, r6}
 8001ce4:	2404      	movs	r4, #4
 8001ce6:	6bc1      	ldr	r1, [r0, #60]	; 0x3c
 8001ce8:	6c02      	ldr	r2, [r0, #64]	; 0x40
 8001cea:	680e      	ldr	r6, [r1, #0]
 8001cec:	f002 021c 	and.w	r2, r2, #28
 8001cf0:	6803      	ldr	r3, [r0, #0]
 8001cf2:	4094      	lsls	r4, r2
 8001cf4:	4234      	tst	r4, r6
 8001cf6:	681d      	ldr	r5, [r3, #0]
 8001cf8:	d00e      	beq.n	8001d18 <HAL_DMA_IRQHandler+0x36>
 8001cfa:	f015 0f04 	tst.w	r5, #4
 8001cfe:	d00b      	beq.n	8001d18 <HAL_DMA_IRQHandler+0x36>
 8001d00:	681a      	ldr	r2, [r3, #0]
 8001d02:	0692      	lsls	r2, r2, #26
 8001d04:	bf5e      	ittt	pl
 8001d06:	681a      	ldrpl	r2, [r3, #0]
 8001d08:	f022 0204 	bicpl.w	r2, r2, #4
 8001d0c:	601a      	strpl	r2, [r3, #0]
 8001d0e:	6ac3      	ldr	r3, [r0, #44]	; 0x2c
 8001d10:	604c      	str	r4, [r1, #4]
 8001d12:	b373      	cbz	r3, 8001d72 <HAL_DMA_IRQHandler+0x90>
 8001d14:	bc70      	pop	{r4, r5, r6}
 8001d16:	4718      	bx	r3
 8001d18:	2402      	movs	r4, #2
 8001d1a:	4094      	lsls	r4, r2
 8001d1c:	4234      	tst	r4, r6
 8001d1e:	d012      	beq.n	8001d46 <HAL_DMA_IRQHandler+0x64>
 8001d20:	f015 0f02 	tst.w	r5, #2
 8001d24:	d00f      	beq.n	8001d46 <HAL_DMA_IRQHandler+0x64>
 8001d26:	681a      	ldr	r2, [r3, #0]
 8001d28:	0695      	lsls	r5, r2, #26
 8001d2a:	d406      	bmi.n	8001d3a <HAL_DMA_IRQHandler+0x58>
 8001d2c:	681a      	ldr	r2, [r3, #0]
 8001d2e:	f022 020a 	bic.w	r2, r2, #10
 8001d32:	601a      	str	r2, [r3, #0]
 8001d34:	2301      	movs	r3, #1
 8001d36:	f880 3021 	strb.w	r3, [r0, #33]	; 0x21
 8001d3a:	2300      	movs	r3, #0
 8001d3c:	604c      	str	r4, [r1, #4]
 8001d3e:	f880 3020 	strb.w	r3, [r0, #32]
 8001d42:	6a83      	ldr	r3, [r0, #40]	; 0x28
 8001d44:	e7e5      	b.n	8001d12 <HAL_DMA_IRQHandler+0x30>
 8001d46:	2408      	movs	r4, #8
 8001d48:	4094      	lsls	r4, r2
 8001d4a:	4234      	tst	r4, r6
 8001d4c:	d011      	beq.n	8001d72 <HAL_DMA_IRQHandler+0x90>
 8001d4e:	072c      	lsls	r4, r5, #28
 8001d50:	d50f      	bpl.n	8001d72 <HAL_DMA_IRQHandler+0x90>
 8001d52:	681c      	ldr	r4, [r3, #0]
 8001d54:	f024 040e 	bic.w	r4, r4, #14
 8001d58:	601c      	str	r4, [r3, #0]
 8001d5a:	2301      	movs	r3, #1
 8001d5c:	fa03 f202 	lsl.w	r2, r3, r2
 8001d60:	604a      	str	r2, [r1, #4]
 8001d62:	6383      	str	r3, [r0, #56]	; 0x38
 8001d64:	f880 3021 	strb.w	r3, [r0, #33]	; 0x21
 8001d68:	2300      	movs	r3, #0
 8001d6a:	f880 3020 	strb.w	r3, [r0, #32]
 8001d6e:	6b03      	ldr	r3, [r0, #48]	; 0x30
 8001d70:	e7cf      	b.n	8001d12 <HAL_DMA_IRQHandler+0x30>
 8001d72:	bc70      	pop	{r4, r5, r6}
 8001d74:	4770      	bx	lr
	...

08001d78 <HAL_GPIO_Init>:
 8001d78:	2300      	movs	r3, #0
 8001d7a:	e92d 4ff7 	stmdb	sp!, {r0, r1, r2, r4, r5, r6, r7, r8, r9, sl, fp, lr}
 8001d7e:	f8df 91a0 	ldr.w	r9, [pc, #416]	; 8001f20 <HAL_GPIO_Init+0x1a8>
 8001d82:	4c65      	ldr	r4, [pc, #404]	; (8001f18 <HAL_GPIO_Init+0x1a0>)
 8001d84:	680a      	ldr	r2, [r1, #0]
 8001d86:	fa32 f503 	lsrs.w	r5, r2, r3
 8001d8a:	d102      	bne.n	8001d92 <HAL_GPIO_Init+0x1a>
 8001d8c:	b003      	add	sp, #12
 8001d8e:	e8bd 8ff0 	ldmia.w	sp!, {r4, r5, r6, r7, r8, r9, sl, fp, pc}
 8001d92:	f04f 0e01 	mov.w	lr, #1
 8001d96:	fa0e fe03 	lsl.w	lr, lr, r3
 8001d9a:	ea1e 0202 	ands.w	r2, lr, r2
 8001d9e:	f000 80ac 	beq.w	8001efa <HAL_GPIO_Init+0x182>
 8001da2:	f04f 0c03 	mov.w	ip, #3
 8001da6:	684e      	ldr	r6, [r1, #4]
 8001da8:	ea4f 0843 	mov.w	r8, r3, lsl #1
 8001dac:	f006 0503 	and.w	r5, r6, #3
 8001db0:	1e6f      	subs	r7, r5, #1
 8001db2:	fa0c fc08 	lsl.w	ip, ip, r8
 8001db6:	2f01      	cmp	r7, #1
 8001db8:	ea6f 0c0c 	mvn.w	ip, ip
 8001dbc:	d834      	bhi.n	8001e28 <HAL_GPIO_Init+0xb0>
 8001dbe:	6887      	ldr	r7, [r0, #8]
 8001dc0:	ea07 0a0c 	and.w	sl, r7, ip
 8001dc4:	68cf      	ldr	r7, [r1, #12]
 8001dc6:	fa07 f708 	lsl.w	r7, r7, r8
 8001dca:	ea47 070a 	orr.w	r7, r7, sl
 8001dce:	6087      	str	r7, [r0, #8]
 8001dd0:	6847      	ldr	r7, [r0, #4]
 8001dd2:	ea27 0e0e 	bic.w	lr, r7, lr
 8001dd6:	f3c6 1700 	ubfx	r7, r6, #4, #1
 8001dda:	409f      	lsls	r7, r3
 8001ddc:	ea47 070e 	orr.w	r7, r7, lr
 8001de0:	6047      	str	r7, [r0, #4]
 8001de2:	68c7      	ldr	r7, [r0, #12]
 8001de4:	2d02      	cmp	r5, #2
 8001de6:	ea07 0e0c 	and.w	lr, r7, ip
 8001dea:	688f      	ldr	r7, [r1, #8]
 8001dec:	fa07 f708 	lsl.w	r7, r7, r8
 8001df0:	ea47 070e 	orr.w	r7, r7, lr
 8001df4:	60c7      	str	r7, [r0, #12]
 8001df6:	d119      	bne.n	8001e2c <HAL_GPIO_Init+0xb4>
 8001df8:	f04f 0e0f 	mov.w	lr, #15
 8001dfc:	ea4f 0ad3 	mov.w	sl, r3, lsr #3
 8001e00:	eb00 0a8a 	add.w	sl, r0, sl, lsl #2
 8001e04:	f003 0b07 	and.w	fp, r3, #7
 8001e08:	f8da 7020 	ldr.w	r7, [sl, #32]
 8001e0c:	ea4f 0b8b 	mov.w	fp, fp, lsl #2
 8001e10:	fa0e fe0b 	lsl.w	lr, lr, fp
 8001e14:	ea27 0e0e 	bic.w	lr, r7, lr
 8001e18:	690f      	ldr	r7, [r1, #16]
 8001e1a:	fa07 f70b 	lsl.w	r7, r7, fp
 8001e1e:	ea47 070e 	orr.w	r7, r7, lr
 8001e22:	f8ca 7020 	str.w	r7, [sl, #32]
 8001e26:	e001      	b.n	8001e2c <HAL_GPIO_Init+0xb4>
 8001e28:	2d03      	cmp	r5, #3
 8001e2a:	d1da      	bne.n	8001de2 <HAL_GPIO_Init+0x6a>
 8001e2c:	6807      	ldr	r7, [r0, #0]
 8001e2e:	fa05 f508 	lsl.w	r5, r5, r8
 8001e32:	ea07 0c0c 	and.w	ip, r7, ip
 8001e36:	ea45 050c 	orr.w	r5, r5, ip
 8001e3a:	f416 3f40 	tst.w	r6, #196608	; 0x30000
 8001e3e:	6005      	str	r5, [r0, #0]
 8001e40:	d05b      	beq.n	8001efa <HAL_GPIO_Init+0x182>
 8001e42:	f04f 0e0f 	mov.w	lr, #15
 8001e46:	f8d9 5020 	ldr.w	r5, [r9, #32]
 8001e4a:	f023 0703 	bic.w	r7, r3, #3
 8001e4e:	f045 0501 	orr.w	r5, r5, #1
 8001e52:	f8c9 5020 	str.w	r5, [r9, #32]
 8001e56:	f8d9 5020 	ldr.w	r5, [r9, #32]
 8001e5a:	f107 4780 	add.w	r7, r7, #1073741824	; 0x40000000
 8001e5e:	f005 0501 	and.w	r5, r5, #1
 8001e62:	9501      	str	r5, [sp, #4]
 8001e64:	f507 3780 	add.w	r7, r7, #65536	; 0x10000
 8001e68:	f003 0c03 	and.w	ip, r3, #3
 8001e6c:	9d01      	ldr	r5, [sp, #4]
 8001e6e:	ea4f 0c8c 	mov.w	ip, ip, lsl #2
 8001e72:	f8d7 8008 	ldr.w	r8, [r7, #8]
 8001e76:	fa0e f50c 	lsl.w	r5, lr, ip
 8001e7a:	ea28 0e05 	bic.w	lr, r8, r5
 8001e7e:	4d27      	ldr	r5, [pc, #156]	; (8001f1c <HAL_GPIO_Init+0x1a4>)
 8001e80:	42a8      	cmp	r0, r5
 8001e82:	d03c      	beq.n	8001efe <HAL_GPIO_Init+0x186>
 8001e84:	f505 6580 	add.w	r5, r5, #1024	; 0x400
 8001e88:	42a8      	cmp	r0, r5
 8001e8a:	d03a      	beq.n	8001f02 <HAL_GPIO_Init+0x18a>
 8001e8c:	f505 6580 	add.w	r5, r5, #1024	; 0x400
 8001e90:	42a8      	cmp	r0, r5
 8001e92:	d038      	beq.n	8001f06 <HAL_GPIO_Init+0x18e>
 8001e94:	f505 6580 	add.w	r5, r5, #1024	; 0x400
 8001e98:	42a8      	cmp	r0, r5
 8001e9a:	d036      	beq.n	8001f0a <HAL_GPIO_Init+0x192>
 8001e9c:	f505 6580 	add.w	r5, r5, #1024	; 0x400
 8001ea0:	42a8      	cmp	r0, r5
 8001ea2:	d034      	beq.n	8001f0e <HAL_GPIO_Init+0x196>
 8001ea4:	f505 6580 	add.w	r5, r5, #1024	; 0x400
 8001ea8:	42a8      	cmp	r0, r5
 8001eaa:	d032      	beq.n	8001f12 <HAL_GPIO_Init+0x19a>
 8001eac:	f505 6580 	add.w	r5, r5, #1024	; 0x400
 8001eb0:	42a8      	cmp	r0, r5
 8001eb2:	bf0c      	ite	eq
 8001eb4:	2506      	moveq	r5, #6
 8001eb6:	2507      	movne	r5, #7
 8001eb8:	fa05 f50c 	lsl.w	r5, r5, ip
 8001ebc:	ea45 050e 	orr.w	r5, r5, lr
 8001ec0:	60bd      	str	r5, [r7, #8]
 8001ec2:	43d7      	mvns	r7, r2
 8001ec4:	6825      	ldr	r5, [r4, #0]
 8001ec6:	f416 3f80 	tst.w	r6, #65536	; 0x10000
 8001eca:	bf0c      	ite	eq
 8001ecc:	403d      	andeq	r5, r7
 8001ece:	4315      	orrne	r5, r2
 8001ed0:	6025      	str	r5, [r4, #0]
 8001ed2:	6865      	ldr	r5, [r4, #4]
 8001ed4:	f416 3f00 	tst.w	r6, #131072	; 0x20000
 8001ed8:	bf0c      	ite	eq
 8001eda:	403d      	andeq	r5, r7
 8001edc:	4315      	orrne	r5, r2
 8001ede:	6065      	str	r5, [r4, #4]
 8001ee0:	68a5      	ldr	r5, [r4, #8]
 8001ee2:	f416 1f80 	tst.w	r6, #1048576	; 0x100000
 8001ee6:	bf0c      	ite	eq
 8001ee8:	403d      	andeq	r5, r7
 8001eea:	4315      	orrne	r5, r2
 8001eec:	60a5      	str	r5, [r4, #8]
 8001eee:	68e5      	ldr	r5, [r4, #12]
 8001ef0:	02b6      	lsls	r6, r6, #10
 8001ef2:	bf54      	ite	pl
 8001ef4:	403d      	andpl	r5, r7
 8001ef6:	4315      	orrmi	r5, r2
 8001ef8:	60e5      	str	r5, [r4, #12]
 8001efa:	3301      	adds	r3, #1
 8001efc:	e742      	b.n	8001d84 <HAL_GPIO_Init+0xc>
 8001efe:	2500      	movs	r5, #0
 8001f00:	e7da      	b.n	8001eb8 <HAL_GPIO_Init+0x140>
 8001f02:	2501      	movs	r5, #1
 8001f04:	e7d8      	b.n	8001eb8 <HAL_GPIO_Init+0x140>
 8001f06:	2502      	movs	r5, #2
 8001f08:	e7d6      	b.n	8001eb8 <HAL_GPIO_Init+0x140>
 8001f0a:	2503      	movs	r5, #3
 8001f0c:	e7d4      	b.n	8001eb8 <HAL_GPIO_Init+0x140>
 8001f0e:	2504      	movs	r5, #4
 8001f10:	e7d2      	b.n	8001eb8 <HAL_GPIO_Init+0x140>
 8001f12:	2505      	movs	r5, #5
 8001f14:	e7d0      	b.n	8001eb8 <HAL_GPIO_Init+0x140>
 8001f16:	bf00      	nop
 8001f18:	40010400 	.word	0x40010400
 8001f1c:	40020000 	.word	0x40020000
 8001f20:	40023800 	.word	0x40023800

08001f24 <HAL_GPIO_ReadPin>:
 8001f24:	6903      	ldr	r3, [r0, #16]
 8001f26:	4219      	tst	r1, r3
 8001f28:	bf14      	ite	ne
 8001f2a:	2001      	movne	r0, #1
 8001f2c:	2000      	moveq	r0, #0
 8001f2e:	4770      	bx	lr

08001f30 <HAL_GPIO_WritePin>:
 8001f30:	b10a      	cbz	r2, 8001f36 <HAL_GPIO_WritePin+0x6>
 8001f32:	6181      	str	r1, [r0, #24]
 8001f34:	4770      	bx	lr
 8001f36:	0409      	lsls	r1, r1, #16
 8001f38:	e7fb      	b.n	8001f32 <HAL_GPIO_WritePin+0x2>

08001f3a <I2C_IsAcknowledgeFailed>:
 8001f3a:	6801      	ldr	r1, [r0, #0]
 8001f3c:	2200      	movs	r2, #0
 8001f3e:	694b      	ldr	r3, [r1, #20]
 8001f40:	f413 6380 	ands.w	r3, r3, #1024	; 0x400
 8001f44:	d010      	beq.n	8001f68 <I2C_IsAcknowledgeFailed+0x2e>
 8001f46:	f46f 6380 	mvn.w	r3, #1024	; 0x400
 8001f4a:	614b      	str	r3, [r1, #20]
 8001f4c:	2320      	movs	r3, #32
 8001f4e:	6302      	str	r2, [r0, #48]	; 0x30
 8001f50:	f880 303d 	strb.w	r3, [r0, #61]	; 0x3d
 8001f54:	f880 203e 	strb.w	r2, [r0, #62]	; 0x3e
 8001f58:	6c03      	ldr	r3, [r0, #64]	; 0x40
 8001f5a:	f880 203c 	strb.w	r2, [r0, #60]	; 0x3c
 8001f5e:	f043 0304 	orr.w	r3, r3, #4
 8001f62:	6403      	str	r3, [r0, #64]	; 0x40
 8001f64:	2001      	movs	r0, #1
 8001f66:	4770      	bx	lr
 8001f68:	4618      	mov	r0, r3
 8001f6a:	4770      	bx	lr

08001f6c <I2C_WaitOnMasterAddressFlagUntilTimeout>:
 8001f6c:	e92d 41f0 	stmdb	sp!, {r4, r5, r6, r7, r8, lr}
 8001f70:	4604      	mov	r4, r0
 8001f72:	460f      	mov	r7, r1
 8001f74:	4616      	mov	r6, r2
 8001f76:	4698      	mov	r8, r3
 8001f78:	6825      	ldr	r5, [r4, #0]
 8001f7a:	6968      	ldr	r0, [r5, #20]
 8001f7c:	ea27 0000 	bic.w	r0, r7, r0
 8001f80:	b280      	uxth	r0, r0
 8001f82:	b1b8      	cbz	r0, 8001fb4 <I2C_WaitOnMasterAddressFlagUntilTimeout+0x48>
 8001f84:	696b      	ldr	r3, [r5, #20]
 8001f86:	055a      	lsls	r2, r3, #21
 8001f88:	d516      	bpl.n	8001fb8 <I2C_WaitOnMasterAddressFlagUntilTimeout+0x4c>
 8001f8a:	682b      	ldr	r3, [r5, #0]
 8001f8c:	2220      	movs	r2, #32
 8001f8e:	f443 7300 	orr.w	r3, r3, #512	; 0x200
 8001f92:	602b      	str	r3, [r5, #0]
 8001f94:	f46f 6380 	mvn.w	r3, #1024	; 0x400
 8001f98:	616b      	str	r3, [r5, #20]
 8001f9a:	2300      	movs	r3, #0
 8001f9c:	6323      	str	r3, [r4, #48]	; 0x30
 8001f9e:	f884 203d 	strb.w	r2, [r4, #61]	; 0x3d
 8001fa2:	f884 303e 	strb.w	r3, [r4, #62]	; 0x3e
 8001fa6:	6c22      	ldr	r2, [r4, #64]	; 0x40
 8001fa8:	f042 0204 	orr.w	r2, r2, #4
 8001fac:	2001      	movs	r0, #1
 8001fae:	6422      	str	r2, [r4, #64]	; 0x40
 8001fb0:	f884 303c 	strb.w	r3, [r4, #60]	; 0x3c
 8001fb4:	e8bd 81f0 	ldmia.w	sp!, {r4, r5, r6, r7, r8, pc}
 8001fb8:	1c73      	adds	r3, r6, #1
 8001fba:	d0de      	beq.n	8001f7a <I2C_WaitOnMasterAddressFlagUntilTimeout+0xe>
 8001fbc:	f7ff fd46 	bl	8001a4c <HAL_GetTick>
 8001fc0:	eba0 0008 	sub.w	r0, r0, r8
 8001fc4:	42b0      	cmp	r0, r6
 8001fc6:	d801      	bhi.n	8001fcc <I2C_WaitOnMasterAddressFlagUntilTimeout+0x60>
 8001fc8:	2e00      	cmp	r6, #0
 8001fca:	d1d5      	bne.n	8001f78 <I2C_WaitOnMasterAddressFlagUntilTimeout+0xc>
 8001fcc:	2300      	movs	r3, #0
 8001fce:	2220      	movs	r2, #32
 8001fd0:	6323      	str	r3, [r4, #48]	; 0x30
 8001fd2:	f884 203d 	strb.w	r2, [r4, #61]	; 0x3d
 8001fd6:	f884 303e 	strb.w	r3, [r4, #62]	; 0x3e
 8001fda:	6c22      	ldr	r2, [r4, #64]	; 0x40
 8001fdc:	f042 0220 	orr.w	r2, r2, #32
 8001fe0:	e7e4      	b.n	8001fac <I2C_WaitOnMasterAddressFlagUntilTimeout+0x40>

08001fe2 <I2C_WaitOnBTFFlagUntilTimeout>:
 8001fe2:	b570      	push	{r4, r5, r6, lr}
 8001fe4:	4604      	mov	r4, r0
 8001fe6:	460d      	mov	r5, r1
 8001fe8:	4616      	mov	r6, r2
 8001fea:	6823      	ldr	r3, [r4, #0]
 8001fec:	695b      	ldr	r3, [r3, #20]
 8001fee:	075b      	lsls	r3, r3, #29
 8001ff0:	d501      	bpl.n	8001ff6 <I2C_WaitOnBTFFlagUntilTimeout+0x14>
 8001ff2:	2000      	movs	r0, #0
 8001ff4:	bd70      	pop	{r4, r5, r6, pc}
 8001ff6:	4620      	mov	r0, r4
 8001ff8:	f7ff ff9f 	bl	8001f3a <I2C_IsAcknowledgeFailed>
 8001ffc:	b9a8      	cbnz	r0, 800202a <I2C_WaitOnBTFFlagUntilTimeout+0x48>
 8001ffe:	1c6a      	adds	r2, r5, #1
 8002000:	d0f3      	beq.n	8001fea <I2C_WaitOnBTFFlagUntilTimeout+0x8>
 8002002:	f7ff fd23 	bl	8001a4c <HAL_GetTick>
 8002006:	1b80      	subs	r0, r0, r6
 8002008:	42a8      	cmp	r0, r5
 800200a:	d801      	bhi.n	8002010 <I2C_WaitOnBTFFlagUntilTimeout+0x2e>
 800200c:	2d00      	cmp	r5, #0
 800200e:	d1ec      	bne.n	8001fea <I2C_WaitOnBTFFlagUntilTimeout+0x8>
 8002010:	2300      	movs	r3, #0
 8002012:	2220      	movs	r2, #32
 8002014:	6323      	str	r3, [r4, #48]	; 0x30
 8002016:	f884 203d 	strb.w	r2, [r4, #61]	; 0x3d
 800201a:	f884 303e 	strb.w	r3, [r4, #62]	; 0x3e
 800201e:	6c22      	ldr	r2, [r4, #64]	; 0x40
 8002020:	f884 303c 	strb.w	r3, [r4, #60]	; 0x3c
 8002024:	f042 0220 	orr.w	r2, r2, #32
 8002028:	6422      	str	r2, [r4, #64]	; 0x40
 800202a:	2001      	movs	r0, #1
 800202c:	e7e2      	b.n	8001ff4 <I2C_WaitOnBTFFlagUntilTimeout+0x12>

0800202e <I2C_WaitOnFlagUntilTimeout>:
 800202e:	e92d 46f8 	stmdb	sp!, {r3, r4, r5, r6, r7, r9, sl, lr}
 8002032:	4606      	mov	r6, r0
 8002034:	460f      	mov	r7, r1
 8002036:	4691      	mov	r9, r2
 8002038:	461d      	mov	r5, r3
 800203a:	ea4f 4a11 	mov.w	sl, r1, lsr #16
 800203e:	6833      	ldr	r3, [r6, #0]
 8002040:	f1ba 0f01 	cmp.w	sl, #1
 8002044:	bf0c      	ite	eq
 8002046:	695c      	ldreq	r4, [r3, #20]
 8002048:	699c      	ldrne	r4, [r3, #24]
 800204a:	ea27 0404 	bic.w	r4, r7, r4
 800204e:	b2a4      	uxth	r4, r4
 8002050:	fab4 f484 	clz	r4, r4
 8002054:	0964      	lsrs	r4, r4, #5
 8002056:	45a1      	cmp	r9, r4
 8002058:	d001      	beq.n	800205e <I2C_WaitOnFlagUntilTimeout+0x30>
 800205a:	2000      	movs	r0, #0
 800205c:	e017      	b.n	800208e <I2C_WaitOnFlagUntilTimeout+0x60>
 800205e:	1c6a      	adds	r2, r5, #1
 8002060:	d0ee      	beq.n	8002040 <I2C_WaitOnFlagUntilTimeout+0x12>
 8002062:	f7ff fcf3 	bl	8001a4c <HAL_GetTick>
 8002066:	9b08      	ldr	r3, [sp, #32]
 8002068:	1ac0      	subs	r0, r0, r3
 800206a:	42a8      	cmp	r0, r5
 800206c:	d801      	bhi.n	8002072 <I2C_WaitOnFlagUntilTimeout+0x44>
 800206e:	2d00      	cmp	r5, #0
 8002070:	d1e5      	bne.n	800203e <I2C_WaitOnFlagUntilTimeout+0x10>
 8002072:	2300      	movs	r3, #0
 8002074:	2220      	movs	r2, #32
 8002076:	2001      	movs	r0, #1
 8002078:	6333      	str	r3, [r6, #48]	; 0x30
 800207a:	f886 203d 	strb.w	r2, [r6, #61]	; 0x3d
 800207e:	f886 303e 	strb.w	r3, [r6, #62]	; 0x3e
 8002082:	6c32      	ldr	r2, [r6, #64]	; 0x40
 8002084:	f886 303c 	strb.w	r3, [r6, #60]	; 0x3c
 8002088:	f042 0220 	orr.w	r2, r2, #32
 800208c:	6432      	str	r2, [r6, #64]	; 0x40
 800208e:	e8bd 86f8 	ldmia.w	sp!, {r3, r4, r5, r6, r7, r9, sl, pc}

08002092 <I2C_WaitOnTXEFlagUntilTimeout>:
 8002092:	b570      	push	{r4, r5, r6, lr}
 8002094:	4604      	mov	r4, r0
 8002096:	460d      	mov	r5, r1
 8002098:	4616      	mov	r6, r2
 800209a:	6823      	ldr	r3, [r4, #0]
 800209c:	695b      	ldr	r3, [r3, #20]
 800209e:	061b      	lsls	r3, r3, #24
 80020a0:	d501      	bpl.n	80020a6 <I2C_WaitOnTXEFlagUntilTimeout+0x14>
 80020a2:	2000      	movs	r0, #0
 80020a4:	bd70      	pop	{r4, r5, r6, pc}
 80020a6:	4620      	mov	r0, r4
 80020a8:	f7ff ff47 	bl	8001f3a <I2C_IsAcknowledgeFailed>
 80020ac:	b9a8      	cbnz	r0, 80020da <I2C_WaitOnTXEFlagUntilTimeout+0x48>
 80020ae:	1c6a      	adds	r2, r5, #1
 80020b0:	d0f3      	beq.n	800209a <I2C_WaitOnTXEFlagUntilTimeout+0x8>
 80020b2:	f7ff fccb 	bl	8001a4c <HAL_GetTick>
 80020b6:	1b80      	subs	r0, r0, r6
 80020b8:	42a8      	cmp	r0, r5
 80020ba:	d801      	bhi.n	80020c0 <I2C_WaitOnTXEFlagUntilTimeout+0x2e>
 80020bc:	2d00      	cmp	r5, #0
 80020be:	d1ec      	bne.n	800209a <I2C_WaitOnTXEFlagUntilTimeout+0x8>
 80020c0:	2300      	movs	r3, #0
 80020c2:	2220      	movs	r2, #32
 80020c4:	6323      	str	r3, [r4, #48]	; 0x30
 80020c6:	f884 203d 	strb.w	r2, [r4, #61]	; 0x3d
 80020ca:	f884 303e 	strb.w	r3, [r4, #62]	; 0x3e
 80020ce:	6c22      	ldr	r2, [r4, #64]	; 0x40
 80020d0:	f884 303c 	strb.w	r3, [r4, #60]	; 0x3c
 80020d4:	f042 0220 	orr.w	r2, r2, #32
 80020d8:	6422      	str	r2, [r4, #64]	; 0x40
 80020da:	2001      	movs	r0, #1
 80020dc:	e7e2      	b.n	80020a4 <I2C_WaitOnTXEFlagUntilTimeout+0x12>
	...

080020e0 <HAL_I2C_Init>:
 80020e0:	b570      	push	{r4, r5, r6, lr}
 80020e2:	4604      	mov	r4, r0
 80020e4:	b908      	cbnz	r0, 80020ea <HAL_I2C_Init+0xa>
 80020e6:	2001      	movs	r0, #1
 80020e8:	bd70      	pop	{r4, r5, r6, pc}
 80020ea:	f890 303d 	ldrb.w	r3, [r0, #61]	; 0x3d
 80020ee:	f003 02ff 	and.w	r2, r3, #255	; 0xff
 80020f2:	b91b      	cbnz	r3, 80020fc <HAL_I2C_Init+0x1c>
 80020f4:	f880 203c 	strb.w	r2, [r0, #60]	; 0x3c
 80020f8:	f7fe ff72 	bl	8000fe0 <HAL_I2C_MspInit>
 80020fc:	2324      	movs	r3, #36	; 0x24
 80020fe:	f884 303d 	strb.w	r3, [r4, #61]	; 0x3d
 8002102:	6823      	ldr	r3, [r4, #0]
 8002104:	681a      	ldr	r2, [r3, #0]
 8002106:	f022 0201 	bic.w	r2, r2, #1
 800210a:	601a      	str	r2, [r3, #0]
 800210c:	681a      	ldr	r2, [r3, #0]
 800210e:	f442 4200 	orr.w	r2, r2, #32768	; 0x8000
 8002112:	601a      	str	r2, [r3, #0]
 8002114:	681a      	ldr	r2, [r3, #0]
 8002116:	f422 4200 	bic.w	r2, r2, #32768	; 0x8000
 800211a:	601a      	str	r2, [r3, #0]
 800211c:	f000 fd6a 	bl	8002bf4 <HAL_RCC_GetPCLK1Freq>
 8002120:	4a3f      	ldr	r2, [pc, #252]	; (8002220 <HAL_I2C_Init+0x140>)
 8002122:	6863      	ldr	r3, [r4, #4]
 8002124:	4293      	cmp	r3, r2
 8002126:	bf94      	ite	ls
 8002128:	4a3e      	ldrls	r2, [pc, #248]	; (8002224 <HAL_I2C_Init+0x144>)
 800212a:	4a3f      	ldrhi	r2, [pc, #252]	; (8002228 <HAL_I2C_Init+0x148>)
 800212c:	4290      	cmp	r0, r2
 800212e:	bf8c      	ite	hi
 8002130:	2200      	movhi	r2, #0
 8002132:	2201      	movls	r2, #1
 8002134:	2a00      	cmp	r2, #0
 8002136:	d1d6      	bne.n	80020e6 <HAL_I2C_Init+0x6>
 8002138:	4e3c      	ldr	r6, [pc, #240]	; (800222c <HAL_I2C_Init+0x14c>)
 800213a:	6822      	ldr	r2, [r4, #0]
 800213c:	fbb0 f6f6 	udiv	r6, r0, r6
 8002140:	6851      	ldr	r1, [r2, #4]
 8002142:	3801      	subs	r0, #1
 8002144:	f021 013f 	bic.w	r1, r1, #63	; 0x3f
 8002148:	4331      	orrs	r1, r6
 800214a:	6051      	str	r1, [r2, #4]
 800214c:	4934      	ldr	r1, [pc, #208]	; (8002220 <HAL_I2C_Init+0x140>)
 800214e:	6a15      	ldr	r5, [r2, #32]
 8002150:	428b      	cmp	r3, r1
 8002152:	bf81      	itttt	hi
 8002154:	f44f 7196 	movhi.w	r1, #300	; 0x12c
 8002158:	4371      	mulhi	r1, r6
 800215a:	f44f 767a 	movhi.w	r6, #1000	; 0x3e8
 800215e:	fbb1 f1f6 	udivhi	r1, r1, r6
 8002162:	f025 053f 	bic.w	r5, r5, #63	; 0x3f
 8002166:	bf94      	ite	ls
 8002168:	1c71      	addls	r1, r6, #1
 800216a:	3101      	addhi	r1, #1
 800216c:	4329      	orrs	r1, r5
 800216e:	6211      	str	r1, [r2, #32]
 8002170:	69d1      	ldr	r1, [r2, #28]
 8002172:	4d2b      	ldr	r5, [pc, #172]	; (8002220 <HAL_I2C_Init+0x140>)
 8002174:	f421 414f 	bic.w	r1, r1, #52992	; 0xcf00
 8002178:	42ab      	cmp	r3, r5
 800217a:	f021 01ff 	bic.w	r1, r1, #255	; 0xff
 800217e:	d832      	bhi.n	80021e6 <HAL_I2C_Init+0x106>
 8002180:	005b      	lsls	r3, r3, #1
 8002182:	fbb0 f0f3 	udiv	r0, r0, r3
 8002186:	1c43      	adds	r3, r0, #1
 8002188:	f640 70fc 	movw	r0, #4092	; 0xffc
 800218c:	4203      	tst	r3, r0
 800218e:	d042      	beq.n	8002216 <HAL_I2C_Init+0x136>
 8002190:	f3c3 030b 	ubfx	r3, r3, #0, #12
 8002194:	430b      	orrs	r3, r1
 8002196:	61d3      	str	r3, [r2, #28]
 8002198:	6811      	ldr	r1, [r2, #0]
 800219a:	e9d4 3007 	ldrd	r3, r0, [r4, #28]
 800219e:	f021 01c0 	bic.w	r1, r1, #192	; 0xc0
 80021a2:	4303      	orrs	r3, r0
 80021a4:	430b      	orrs	r3, r1
 80021a6:	6013      	str	r3, [r2, #0]
 80021a8:	6891      	ldr	r1, [r2, #8]
 80021aa:	e9d4 0303 	ldrd	r0, r3, [r4, #12]
 80021ae:	f421 4103 	bic.w	r1, r1, #33536	; 0x8300
 80021b2:	4303      	orrs	r3, r0
 80021b4:	f021 01ff 	bic.w	r1, r1, #255	; 0xff
 80021b8:	430b      	orrs	r3, r1
 80021ba:	6093      	str	r3, [r2, #8]
 80021bc:	68d1      	ldr	r1, [r2, #12]
 80021be:	e9d4 3005 	ldrd	r3, r0, [r4, #20]
 80021c2:	f021 01ff 	bic.w	r1, r1, #255	; 0xff
 80021c6:	4303      	orrs	r3, r0
 80021c8:	430b      	orrs	r3, r1
 80021ca:	60d3      	str	r3, [r2, #12]
 80021cc:	6813      	ldr	r3, [r2, #0]
 80021ce:	2000      	movs	r0, #0
 80021d0:	f043 0301 	orr.w	r3, r3, #1
 80021d4:	6013      	str	r3, [r2, #0]
 80021d6:	2320      	movs	r3, #32
 80021d8:	6420      	str	r0, [r4, #64]	; 0x40
 80021da:	f884 303d 	strb.w	r3, [r4, #61]	; 0x3d
 80021de:	6320      	str	r0, [r4, #48]	; 0x30
 80021e0:	f884 003e 	strb.w	r0, [r4, #62]	; 0x3e
 80021e4:	e780      	b.n	80020e8 <HAL_I2C_Init+0x8>
 80021e6:	68a5      	ldr	r5, [r4, #8]
 80021e8:	b955      	cbnz	r5, 8002200 <HAL_I2C_Init+0x120>
 80021ea:	eb03 0343 	add.w	r3, r3, r3, lsl #1
 80021ee:	fbb0 f3f3 	udiv	r3, r0, r3
 80021f2:	3301      	adds	r3, #1
 80021f4:	f3c3 030b 	ubfx	r3, r3, #0, #12
 80021f8:	b17b      	cbz	r3, 800221a <HAL_I2C_Init+0x13a>
 80021fa:	f443 4300 	orr.w	r3, r3, #32768	; 0x8000
 80021fe:	e7c9      	b.n	8002194 <HAL_I2C_Init+0xb4>
 8002200:	2519      	movs	r5, #25
 8002202:	436b      	muls	r3, r5
 8002204:	fbb0 f3f3 	udiv	r3, r0, r3
 8002208:	3301      	adds	r3, #1
 800220a:	f3c3 030b 	ubfx	r3, r3, #0, #12
 800220e:	b123      	cbz	r3, 800221a <HAL_I2C_Init+0x13a>
 8002210:	f443 4340 	orr.w	r3, r3, #49152	; 0xc000
 8002214:	e7be      	b.n	8002194 <HAL_I2C_Init+0xb4>
 8002216:	2304      	movs	r3, #4
 8002218:	e7bc      	b.n	8002194 <HAL_I2C_Init+0xb4>
 800221a:	2301      	movs	r3, #1
 800221c:	e7ba      	b.n	8002194 <HAL_I2C_Init+0xb4>
 800221e:	bf00      	nop
 8002220:	000186a0 	.word	0x000186a0
 8002224:	001e847f 	.word	0x001e847f
 8002228:	003d08ff 	.word	0x003d08ff
 800222c:	000f4240 	.word	0x000f4240

08002230 <HAL_I2C_Master_Transmit>:
 8002230:	e92d 43f0 	stmdb	sp!, {r4, r5, r6, r7, r8, r9, lr}
 8002234:	4604      	mov	r4, r0
 8002236:	b085      	sub	sp, #20
 8002238:	4698      	mov	r8, r3
 800223a:	460d      	mov	r5, r1
 800223c:	4691      	mov	r9, r2
 800223e:	9f0c      	ldr	r7, [sp, #48]	; 0x30
 8002240:	f7ff fc04 	bl	8001a4c <HAL_GetTick>
 8002244:	f894 303d 	ldrb.w	r3, [r4, #61]	; 0x3d
 8002248:	4606      	mov	r6, r0
 800224a:	2b20      	cmp	r3, #32
 800224c:	d004      	beq.n	8002258 <HAL_I2C_Master_Transmit+0x28>
 800224e:	2502      	movs	r5, #2
 8002250:	4628      	mov	r0, r5
 8002252:	b005      	add	sp, #20
 8002254:	e8bd 83f0 	ldmia.w	sp!, {r4, r5, r6, r7, r8, r9, pc}
 8002258:	9000      	str	r0, [sp, #0]
 800225a:	2319      	movs	r3, #25
 800225c:	2201      	movs	r2, #1
 800225e:	4620      	mov	r0, r4
 8002260:	495b      	ldr	r1, [pc, #364]	; (80023d0 <HAL_I2C_Master_Transmit+0x1a0>)
 8002262:	f7ff fee4 	bl	800202e <I2C_WaitOnFlagUntilTimeout>
 8002266:	2800      	cmp	r0, #0
 8002268:	d1f1      	bne.n	800224e <HAL_I2C_Master_Transmit+0x1e>
 800226a:	f894 303c 	ldrb.w	r3, [r4, #60]	; 0x3c
 800226e:	2b01      	cmp	r3, #1
 8002270:	d0ed      	beq.n	800224e <HAL_I2C_Master_Transmit+0x1e>
 8002272:	2301      	movs	r3, #1
 8002274:	6821      	ldr	r1, [r4, #0]
 8002276:	f884 303c 	strb.w	r3, [r4, #60]	; 0x3c
 800227a:	680b      	ldr	r3, [r1, #0]
 800227c:	07da      	lsls	r2, r3, #31
 800227e:	bf5e      	ittt	pl
 8002280:	680b      	ldrpl	r3, [r1, #0]
 8002282:	f043 0301 	orrpl.w	r3, r3, #1
 8002286:	600b      	strpl	r3, [r1, #0]
 8002288:	680b      	ldr	r3, [r1, #0]
 800228a:	f423 6300 	bic.w	r3, r3, #2048	; 0x800
 800228e:	600b      	str	r3, [r1, #0]
 8002290:	2321      	movs	r3, #33	; 0x21
 8002292:	f884 303d 	strb.w	r3, [r4, #61]	; 0x3d
 8002296:	2310      	movs	r3, #16
 8002298:	f884 303e 	strb.w	r3, [r4, #62]	; 0x3e
 800229c:	2300      	movs	r3, #0
 800229e:	6423      	str	r3, [r4, #64]	; 0x40
 80022a0:	f8a4 802a 	strh.w	r8, [r4, #42]	; 0x2a
 80022a4:	8d63      	ldrh	r3, [r4, #42]	; 0x2a
 80022a6:	f8c4 9024 	str.w	r9, [r4, #36]	; 0x24
 80022aa:	8523      	strh	r3, [r4, #40]	; 0x28
 80022ac:	4b49      	ldr	r3, [pc, #292]	; (80023d4 <HAL_I2C_Master_Transmit+0x1a4>)
 80022ae:	62e3      	str	r3, [r4, #44]	; 0x2c
 80022b0:	6ae3      	ldr	r3, [r4, #44]	; 0x2c
 80022b2:	2b08      	cmp	r3, #8
 80022b4:	d004      	beq.n	80022c0 <HAL_I2C_Master_Transmit+0x90>
 80022b6:	2b01      	cmp	r3, #1
 80022b8:	d002      	beq.n	80022c0 <HAL_I2C_Master_Transmit+0x90>
 80022ba:	f513 3f80 	cmn.w	r3, #65536	; 0x10000
 80022be:	d104      	bne.n	80022ca <HAL_I2C_Master_Transmit+0x9a>
 80022c0:	680b      	ldr	r3, [r1, #0]
 80022c2:	f443 7380 	orr.w	r3, r3, #256	; 0x100
 80022c6:	600b      	str	r3, [r1, #0]
 80022c8:	e002      	b.n	80022d0 <HAL_I2C_Master_Transmit+0xa0>
 80022ca:	6b23      	ldr	r3, [r4, #48]	; 0x30
 80022cc:	2b12      	cmp	r3, #18
 80022ce:	d0f7      	beq.n	80022c0 <HAL_I2C_Master_Transmit+0x90>
 80022d0:	2200      	movs	r2, #0
 80022d2:	463b      	mov	r3, r7
 80022d4:	f04f 1101 	mov.w	r1, #65537	; 0x10001
 80022d8:	4620      	mov	r0, r4
 80022da:	9600      	str	r6, [sp, #0]
 80022dc:	f7ff fea7 	bl	800202e <I2C_WaitOnFlagUntilTimeout>
 80022e0:	6822      	ldr	r2, [r4, #0]
 80022e2:	b138      	cbz	r0, 80022f4 <HAL_I2C_Master_Transmit+0xc4>
 80022e4:	6813      	ldr	r3, [r2, #0]
 80022e6:	05db      	lsls	r3, r3, #23
 80022e8:	bf44      	itt	mi
 80022ea:	f44f 7300 	movmi.w	r3, #512	; 0x200
 80022ee:	6423      	strmi	r3, [r4, #64]	; 0x40
 80022f0:	2501      	movs	r5, #1
 80022f2:	e7ad      	b.n	8002250 <HAL_I2C_Master_Transmit+0x20>
 80022f4:	6923      	ldr	r3, [r4, #16]
 80022f6:	f5b3 4f80 	cmp.w	r3, #16384	; 0x4000
 80022fa:	d121      	bne.n	8002340 <HAL_I2C_Master_Transmit+0x110>
 80022fc:	f005 05fe 	and.w	r5, r5, #254	; 0xfe
 8002300:	6115      	str	r5, [r2, #16]
 8002302:	4633      	mov	r3, r6
 8002304:	463a      	mov	r2, r7
 8002306:	4620      	mov	r0, r4
 8002308:	4933      	ldr	r1, [pc, #204]	; (80023d8 <HAL_I2C_Master_Transmit+0x1a8>)
 800230a:	f7ff fe2f 	bl	8001f6c <I2C_WaitOnMasterAddressFlagUntilTimeout>
 800230e:	4605      	mov	r5, r0
 8002310:	2800      	cmp	r0, #0
 8002312:	d1ed      	bne.n	80022f0 <HAL_I2C_Master_Transmit+0xc0>
 8002314:	6823      	ldr	r3, [r4, #0]
 8002316:	9003      	str	r0, [sp, #12]
 8002318:	695a      	ldr	r2, [r3, #20]
 800231a:	9203      	str	r2, [sp, #12]
 800231c:	699b      	ldr	r3, [r3, #24]
 800231e:	9303      	str	r3, [sp, #12]
 8002320:	9b03      	ldr	r3, [sp, #12]
 8002322:	8d23      	ldrh	r3, [r4, #40]	; 0x28
 8002324:	b9f3      	cbnz	r3, 8002364 <HAL_I2C_Master_Transmit+0x134>
 8002326:	6821      	ldr	r1, [r4, #0]
 8002328:	680a      	ldr	r2, [r1, #0]
 800232a:	f442 7200 	orr.w	r2, r2, #512	; 0x200
 800232e:	600a      	str	r2, [r1, #0]
 8002330:	2220      	movs	r2, #32
 8002332:	f884 303c 	strb.w	r3, [r4, #60]	; 0x3c
 8002336:	f884 203d 	strb.w	r2, [r4, #61]	; 0x3d
 800233a:	f884 303e 	strb.w	r3, [r4, #62]	; 0x3e
 800233e:	e787      	b.n	8002250 <HAL_I2C_Master_Transmit+0x20>
 8002340:	11eb      	asrs	r3, r5, #7
 8002342:	f003 0306 	and.w	r3, r3, #6
 8002346:	f043 03f0 	orr.w	r3, r3, #240	; 0xf0
 800234a:	6113      	str	r3, [r2, #16]
 800234c:	4620      	mov	r0, r4
 800234e:	4633      	mov	r3, r6
 8002350:	463a      	mov	r2, r7
 8002352:	4922      	ldr	r1, [pc, #136]	; (80023dc <HAL_I2C_Master_Transmit+0x1ac>)
 8002354:	f7ff fe0a 	bl	8001f6c <I2C_WaitOnMasterAddressFlagUntilTimeout>
 8002358:	2800      	cmp	r0, #0
 800235a:	d1c9      	bne.n	80022f0 <HAL_I2C_Master_Transmit+0xc0>
 800235c:	6823      	ldr	r3, [r4, #0]
 800235e:	b2ed      	uxtb	r5, r5
 8002360:	611d      	str	r5, [r3, #16]
 8002362:	e7ce      	b.n	8002302 <HAL_I2C_Master_Transmit+0xd2>
 8002364:	4632      	mov	r2, r6
 8002366:	4639      	mov	r1, r7
 8002368:	4620      	mov	r0, r4
 800236a:	f7ff fe92 	bl	8002092 <I2C_WaitOnTXEFlagUntilTimeout>
 800236e:	b140      	cbz	r0, 8002382 <HAL_I2C_Master_Transmit+0x152>
 8002370:	6c23      	ldr	r3, [r4, #64]	; 0x40
 8002372:	2b04      	cmp	r3, #4
 8002374:	d1bc      	bne.n	80022f0 <HAL_I2C_Master_Transmit+0xc0>
 8002376:	6822      	ldr	r2, [r4, #0]
 8002378:	6813      	ldr	r3, [r2, #0]
 800237a:	f443 7300 	orr.w	r3, r3, #512	; 0x200
 800237e:	6013      	str	r3, [r2, #0]
 8002380:	e7b6      	b.n	80022f0 <HAL_I2C_Master_Transmit+0xc0>
 8002382:	6a63      	ldr	r3, [r4, #36]	; 0x24
 8002384:	6820      	ldr	r0, [r4, #0]
 8002386:	461a      	mov	r2, r3
 8002388:	f812 1b01 	ldrb.w	r1, [r2], #1
 800238c:	6101      	str	r1, [r0, #16]
 800238e:	6262      	str	r2, [r4, #36]	; 0x24
 8002390:	8d62      	ldrh	r2, [r4, #42]	; 0x2a
 8002392:	3a01      	subs	r2, #1
 8002394:	b292      	uxth	r2, r2
 8002396:	8562      	strh	r2, [r4, #42]	; 0x2a
 8002398:	8d22      	ldrh	r2, [r4, #40]	; 0x28
 800239a:	f8d0 c014 	ldr.w	ip, [r0, #20]
 800239e:	1e51      	subs	r1, r2, #1
 80023a0:	b289      	uxth	r1, r1
 80023a2:	f01c 0f04 	tst.w	ip, #4
 80023a6:	8521      	strh	r1, [r4, #40]	; 0x28
 80023a8:	d00a      	beq.n	80023c0 <HAL_I2C_Master_Transmit+0x190>
 80023aa:	b149      	cbz	r1, 80023c0 <HAL_I2C_Master_Transmit+0x190>
 80023ac:	7859      	ldrb	r1, [r3, #1]
 80023ae:	3302      	adds	r3, #2
 80023b0:	6101      	str	r1, [r0, #16]
 80023b2:	6263      	str	r3, [r4, #36]	; 0x24
 80023b4:	8d63      	ldrh	r3, [r4, #42]	; 0x2a
 80023b6:	3a02      	subs	r2, #2
 80023b8:	3b01      	subs	r3, #1
 80023ba:	b29b      	uxth	r3, r3
 80023bc:	8563      	strh	r3, [r4, #42]	; 0x2a
 80023be:	8522      	strh	r2, [r4, #40]	; 0x28
 80023c0:	4632      	mov	r2, r6
 80023c2:	4639      	mov	r1, r7
 80023c4:	4620      	mov	r0, r4
 80023c6:	f7ff fe0c 	bl	8001fe2 <I2C_WaitOnBTFFlagUntilTimeout>
 80023ca:	2800      	cmp	r0, #0
 80023cc:	d0a9      	beq.n	8002322 <HAL_I2C_Master_Transmit+0xf2>
 80023ce:	e7cf      	b.n	8002370 <HAL_I2C_Master_Transmit+0x140>
 80023d0:	00100002 	.word	0x00100002
 80023d4:	ffff0000 	.word	0xffff0000
 80023d8:	00010002 	.word	0x00010002
 80023dc:	00010008 	.word	0x00010008

080023e0 <HAL_I2C_IsDeviceReady>:
 80023e0:	e92d 4ff0 	stmdb	sp!, {r4, r5, r6, r7, r8, r9, sl, fp, lr}
 80023e4:	4604      	mov	r4, r0
 80023e6:	b085      	sub	sp, #20
 80023e8:	461e      	mov	r6, r3
 80023ea:	460f      	mov	r7, r1
 80023ec:	4691      	mov	r9, r2
 80023ee:	f7ff fb2d 	bl	8001a4c <HAL_GetTick>
 80023f2:	f894 303d 	ldrb.w	r3, [r4, #61]	; 0x3d
 80023f6:	4605      	mov	r5, r0
 80023f8:	2b20      	cmp	r3, #32
 80023fa:	d003      	beq.n	8002404 <HAL_I2C_IsDeviceReady+0x24>
 80023fc:	2002      	movs	r0, #2
 80023fe:	b005      	add	sp, #20
 8002400:	e8bd 8ff0 	ldmia.w	sp!, {r4, r5, r6, r7, r8, r9, sl, fp, pc}
 8002404:	9000      	str	r0, [sp, #0]
 8002406:	2319      	movs	r3, #25
 8002408:	2201      	movs	r2, #1
 800240a:	4620      	mov	r0, r4
 800240c:	494c      	ldr	r1, [pc, #304]	; (8002540 <HAL_I2C_IsDeviceReady+0x160>)
 800240e:	f7ff fe0e 	bl	800202e <I2C_WaitOnFlagUntilTimeout>
 8002412:	2800      	cmp	r0, #0
 8002414:	d1f2      	bne.n	80023fc <HAL_I2C_IsDeviceReady+0x1c>
 8002416:	f894 303c 	ldrb.w	r3, [r4, #60]	; 0x3c
 800241a:	2b01      	cmp	r3, #1
 800241c:	d0ee      	beq.n	80023fc <HAL_I2C_IsDeviceReady+0x1c>
 800241e:	2301      	movs	r3, #1
 8002420:	f884 303c 	strb.w	r3, [r4, #60]	; 0x3c
 8002424:	6823      	ldr	r3, [r4, #0]
 8002426:	f04f 0a01 	mov.w	sl, #1
 800242a:	681a      	ldr	r2, [r3, #0]
 800242c:	f8df b110 	ldr.w	fp, [pc, #272]	; 8002540 <HAL_I2C_IsDeviceReady+0x160>
 8002430:	07d2      	lsls	r2, r2, #31
 8002432:	bf58      	it	pl
 8002434:	681a      	ldrpl	r2, [r3, #0]
 8002436:	f007 07fe 	and.w	r7, r7, #254	; 0xfe
 800243a:	bf5c      	itt	pl
 800243c:	f042 0201 	orrpl.w	r2, r2, #1
 8002440:	601a      	strpl	r2, [r3, #0]
 8002442:	681a      	ldr	r2, [r3, #0]
 8002444:	f422 6200 	bic.w	r2, r2, #2048	; 0x800
 8002448:	601a      	str	r2, [r3, #0]
 800244a:	2324      	movs	r3, #36	; 0x24
 800244c:	f884 303d 	strb.w	r3, [r4, #61]	; 0x3d
 8002450:	2300      	movs	r3, #0
 8002452:	6423      	str	r3, [r4, #64]	; 0x40
 8002454:	f5a3 3380 	sub.w	r3, r3, #65536	; 0x10000
 8002458:	62e3      	str	r3, [r4, #44]	; 0x2c
 800245a:	6822      	ldr	r2, [r4, #0]
 800245c:	f04f 1101 	mov.w	r1, #65537	; 0x10001
 8002460:	6813      	ldr	r3, [r2, #0]
 8002462:	4620      	mov	r0, r4
 8002464:	f443 7380 	orr.w	r3, r3, #256	; 0x100
 8002468:	6013      	str	r3, [r2, #0]
 800246a:	4633      	mov	r3, r6
 800246c:	2200      	movs	r2, #0
 800246e:	9500      	str	r5, [sp, #0]
 8002470:	f7ff fddd 	bl	800202e <I2C_WaitOnFlagUntilTimeout>
 8002474:	6823      	ldr	r3, [r4, #0]
 8002476:	b138      	cbz	r0, 8002488 <HAL_I2C_IsDeviceReady+0xa8>
 8002478:	681b      	ldr	r3, [r3, #0]
 800247a:	05db      	lsls	r3, r3, #23
 800247c:	d502      	bpl.n	8002484 <HAL_I2C_IsDeviceReady+0xa4>
 800247e:	f44f 7300 	mov.w	r3, #512	; 0x200
 8002482:	6423      	str	r3, [r4, #64]	; 0x40
 8002484:	2003      	movs	r0, #3
 8002486:	e7ba      	b.n	80023fe <HAL_I2C_IsDeviceReady+0x1e>
 8002488:	611f      	str	r7, [r3, #16]
 800248a:	f7ff fadf 	bl	8001a4c <HAL_GetTick>
 800248e:	f04f 08a0 	mov.w	r8, #160	; 0xa0
 8002492:	4605      	mov	r5, r0
 8002494:	6823      	ldr	r3, [r4, #0]
 8002496:	695a      	ldr	r2, [r3, #20]
 8002498:	695b      	ldr	r3, [r3, #20]
 800249a:	f3c2 0240 	ubfx	r2, r2, #1, #1
 800249e:	f3c3 2380 	ubfx	r3, r3, #10, #1
 80024a2:	f894 103d 	ldrb.w	r1, [r4, #61]	; 0x3d
 80024a6:	29a0      	cmp	r1, #160	; 0xa0
 80024a8:	d001      	beq.n	80024ae <HAL_I2C_IsDeviceReady+0xce>
 80024aa:	4313      	orrs	r3, r2
 80024ac:	d01d      	beq.n	80024ea <HAL_I2C_IsDeviceReady+0x10a>
 80024ae:	f04f 0820 	mov.w	r8, #32
 80024b2:	6823      	ldr	r3, [r4, #0]
 80024b4:	f884 803d 	strb.w	r8, [r4, #61]	; 0x3d
 80024b8:	695a      	ldr	r2, [r3, #20]
 80024ba:	f012 0f02 	tst.w	r2, #2
 80024be:	681a      	ldr	r2, [r3, #0]
 80024c0:	f442 7200 	orr.w	r2, r2, #512	; 0x200
 80024c4:	601a      	str	r2, [r3, #0]
 80024c6:	d025      	beq.n	8002514 <HAL_I2C_IsDeviceReady+0x134>
 80024c8:	2200      	movs	r2, #0
 80024ca:	9203      	str	r2, [sp, #12]
 80024cc:	695a      	ldr	r2, [r3, #20]
 80024ce:	4620      	mov	r0, r4
 80024d0:	9203      	str	r2, [sp, #12]
 80024d2:	699b      	ldr	r3, [r3, #24]
 80024d4:	2201      	movs	r2, #1
 80024d6:	9303      	str	r3, [sp, #12]
 80024d8:	9b03      	ldr	r3, [sp, #12]
 80024da:	4919      	ldr	r1, [pc, #100]	; (8002540 <HAL_I2C_IsDeviceReady+0x160>)
 80024dc:	2319      	movs	r3, #25
 80024de:	9500      	str	r5, [sp, #0]
 80024e0:	f7ff fda5 	bl	800202e <I2C_WaitOnFlagUntilTimeout>
 80024e4:	b188      	cbz	r0, 800250a <HAL_I2C_IsDeviceReady+0x12a>
 80024e6:	2001      	movs	r0, #1
 80024e8:	e789      	b.n	80023fe <HAL_I2C_IsDeviceReady+0x1e>
 80024ea:	f7ff faaf 	bl	8001a4c <HAL_GetTick>
 80024ee:	1b40      	subs	r0, r0, r5
 80024f0:	42b0      	cmp	r0, r6
 80024f2:	d800      	bhi.n	80024f6 <HAL_I2C_IsDeviceReady+0x116>
 80024f4:	b90e      	cbnz	r6, 80024fa <HAL_I2C_IsDeviceReady+0x11a>
 80024f6:	f884 803d 	strb.w	r8, [r4, #61]	; 0x3d
 80024fa:	6823      	ldr	r3, [r4, #0]
 80024fc:	695a      	ldr	r2, [r3, #20]
 80024fe:	695b      	ldr	r3, [r3, #20]
 8002500:	f3c2 0240 	ubfx	r2, r2, #1, #1
 8002504:	f3c3 2380 	ubfx	r3, r3, #10, #1
 8002508:	e7cb      	b.n	80024a2 <HAL_I2C_IsDeviceReady+0xc2>
 800250a:	f884 803d 	strb.w	r8, [r4, #61]	; 0x3d
 800250e:	f884 003c 	strb.w	r0, [r4, #60]	; 0x3c
 8002512:	e774      	b.n	80023fe <HAL_I2C_IsDeviceReady+0x1e>
 8002514:	f46f 6280 	mvn.w	r2, #1024	; 0x400
 8002518:	4659      	mov	r1, fp
 800251a:	615a      	str	r2, [r3, #20]
 800251c:	4620      	mov	r0, r4
 800251e:	2319      	movs	r3, #25
 8002520:	2201      	movs	r2, #1
 8002522:	9500      	str	r5, [sp, #0]
 8002524:	f7ff fd83 	bl	800202e <I2C_WaitOnFlagUntilTimeout>
 8002528:	2800      	cmp	r0, #0
 800252a:	d1dc      	bne.n	80024e6 <HAL_I2C_IsDeviceReady+0x106>
 800252c:	f10a 0a01 	add.w	sl, sl, #1
 8002530:	45ca      	cmp	sl, r9
 8002532:	d392      	bcc.n	800245a <HAL_I2C_IsDeviceReady+0x7a>
 8002534:	f884 803d 	strb.w	r8, [r4, #61]	; 0x3d
 8002538:	f884 003c 	strb.w	r0, [r4, #60]	; 0x3c
 800253c:	e7d3      	b.n	80024e6 <HAL_I2C_IsDeviceReady+0x106>
 800253e:	bf00      	nop
 8002540:	00100002 	.word	0x00100002

08002544 <RCC_SetFlashLatencyFromMSIRange>:
 8002544:	4b1c      	ldr	r3, [pc, #112]	; (80025b8 <RCC_SetFlashLatencyFromMSIRange+0x74>)
 8002546:	b082      	sub	sp, #8
 8002548:	689a      	ldr	r2, [r3, #8]
 800254a:	f012 0ff0 	tst.w	r2, #240	; 0xf0
 800254e:	d00c      	beq.n	800256a <RCC_SetFlashLatencyFromMSIRange+0x26>
 8002550:	2200      	movs	r2, #0
 8002552:	491a      	ldr	r1, [pc, #104]	; (80025bc <RCC_SetFlashLatencyFromMSIRange+0x78>)
 8002554:	680b      	ldr	r3, [r1, #0]
 8002556:	f023 0301 	bic.w	r3, r3, #1
 800255a:	4313      	orrs	r3, r2
 800255c:	600b      	str	r3, [r1, #0]
 800255e:	6808      	ldr	r0, [r1, #0]
 8002560:	f000 0001 	and.w	r0, r0, #1
 8002564:	4050      	eors	r0, r2
 8002566:	b002      	add	sp, #8
 8002568:	4770      	bx	lr
 800256a:	6a5a      	ldr	r2, [r3, #36]	; 0x24
 800256c:	4914      	ldr	r1, [pc, #80]	; (80025c0 <RCC_SetFlashLatencyFromMSIRange+0x7c>)
 800256e:	f012 5f80 	tst.w	r2, #268435456	; 0x10000000
 8002572:	d00f      	beq.n	8002594 <RCC_SetFlashLatencyFromMSIRange+0x50>
 8002574:	680a      	ldr	r2, [r1, #0]
 8002576:	f402 52c0 	and.w	r2, r2, #6144	; 0x1800
 800257a:	f5b2 5fc0 	cmp.w	r2, #6144	; 0x1800
 800257e:	d1e7      	bne.n	8002550 <RCC_SetFlashLatencyFromMSIRange+0xc>
 8002580:	f5b0 4f40 	cmp.w	r0, #49152	; 0xc000
 8002584:	d1e4      	bne.n	8002550 <RCC_SetFlashLatencyFromMSIRange+0xc>
 8002586:	4a0d      	ldr	r2, [pc, #52]	; (80025bc <RCC_SetFlashLatencyFromMSIRange+0x78>)
 8002588:	6813      	ldr	r3, [r2, #0]
 800258a:	f043 0304 	orr.w	r3, r3, #4
 800258e:	6013      	str	r3, [r2, #0]
 8002590:	2201      	movs	r2, #1
 8002592:	e7de      	b.n	8002552 <RCC_SetFlashLatencyFromMSIRange+0xe>
 8002594:	6a5a      	ldr	r2, [r3, #36]	; 0x24
 8002596:	f042 5280 	orr.w	r2, r2, #268435456	; 0x10000000
 800259a:	625a      	str	r2, [r3, #36]	; 0x24
 800259c:	6a5a      	ldr	r2, [r3, #36]	; 0x24
 800259e:	f002 5280 	and.w	r2, r2, #268435456	; 0x10000000
 80025a2:	9201      	str	r2, [sp, #4]
 80025a4:	9a01      	ldr	r2, [sp, #4]
 80025a6:	680a      	ldr	r2, [r1, #0]
 80025a8:	6a59      	ldr	r1, [r3, #36]	; 0x24
 80025aa:	f402 52c0 	and.w	r2, r2, #6144	; 0x1800
 80025ae:	f021 5180 	bic.w	r1, r1, #268435456	; 0x10000000
 80025b2:	6259      	str	r1, [r3, #36]	; 0x24
 80025b4:	e7e1      	b.n	800257a <RCC_SetFlashLatencyFromMSIRange+0x36>
 80025b6:	bf00      	nop
 80025b8:	40023800 	.word	0x40023800
 80025bc:	40023c00 	.word	0x40023c00
 80025c0:	40007000 	.word	0x40007000

080025c4 <HAL_RCC_OscConfig>:
 80025c4:	e92d 43f7 	stmdb	sp!, {r0, r1, r2, r4, r5, r6, r7, r8, r9, lr}
 80025c8:	4604      	mov	r4, r0
 80025ca:	2800      	cmp	r0, #0
 80025cc:	d060      	beq.n	8002690 <HAL_RCC_OscConfig+0xcc>
 80025ce:	4ba2      	ldr	r3, [pc, #648]	; (8002858 <HAL_RCC_OscConfig+0x294>)
 80025d0:	6802      	ldr	r2, [r0, #0]
 80025d2:	689e      	ldr	r6, [r3, #8]
 80025d4:	689f      	ldr	r7, [r3, #8]
 80025d6:	07d0      	lsls	r0, r2, #31
 80025d8:	f006 060c 	and.w	r6, r6, #12
 80025dc:	f407 3780 	and.w	r7, r7, #65536	; 0x10000
 80025e0:	d44b      	bmi.n	800267a <HAL_RCC_OscConfig+0xb6>
 80025e2:	6823      	ldr	r3, [r4, #0]
 80025e4:	0799      	lsls	r1, r3, #30
 80025e6:	f100 8097 	bmi.w	8002718 <HAL_RCC_OscConfig+0x154>
 80025ea:	6823      	ldr	r3, [r4, #0]
 80025ec:	06d8      	lsls	r0, r3, #27
 80025ee:	d536      	bpl.n	800265e <HAL_RCC_OscConfig+0x9a>
 80025f0:	2e00      	cmp	r6, #0
 80025f2:	f040 80e0 	bne.w	80027b6 <HAL_RCC_OscConfig+0x1f2>
 80025f6:	4d98      	ldr	r5, [pc, #608]	; (8002858 <HAL_RCC_OscConfig+0x294>)
 80025f8:	682b      	ldr	r3, [r5, #0]
 80025fa:	0599      	lsls	r1, r3, #22
 80025fc:	d502      	bpl.n	8002604 <HAL_RCC_OscConfig+0x40>
 80025fe:	69a3      	ldr	r3, [r4, #24]
 8002600:	2b00      	cmp	r3, #0
 8002602:	d045      	beq.n	8002690 <HAL_RCC_OscConfig+0xcc>
 8002604:	686b      	ldr	r3, [r5, #4]
 8002606:	6a20      	ldr	r0, [r4, #32]
 8002608:	f403 4360 	and.w	r3, r3, #57344	; 0xe000
 800260c:	4298      	cmp	r0, r3
 800260e:	f240 80c0 	bls.w	8002792 <HAL_RCC_OscConfig+0x1ce>
 8002612:	f7ff ff97 	bl	8002544 <RCC_SetFlashLatencyFromMSIRange>
 8002616:	2800      	cmp	r0, #0
 8002618:	d13a      	bne.n	8002690 <HAL_RCC_OscConfig+0xcc>
 800261a:	686b      	ldr	r3, [r5, #4]
 800261c:	6a22      	ldr	r2, [r4, #32]
 800261e:	f423 4360 	bic.w	r3, r3, #57344	; 0xe000
 8002622:	4313      	orrs	r3, r2
 8002624:	606b      	str	r3, [r5, #4]
 8002626:	686b      	ldr	r3, [r5, #4]
 8002628:	69e2      	ldr	r2, [r4, #28]
 800262a:	f023 437f 	bic.w	r3, r3, #4278190080	; 0xff000000
 800262e:	ea43 6302 	orr.w	r3, r3, r2, lsl #24
 8002632:	606b      	str	r3, [r5, #4]
 8002634:	4b88      	ldr	r3, [pc, #544]	; (8002858 <HAL_RCC_OscConfig+0x294>)
 8002636:	6899      	ldr	r1, [r3, #8]
 8002638:	6a23      	ldr	r3, [r4, #32]
 800263a:	0b5b      	lsrs	r3, r3, #13
 800263c:	1c5a      	adds	r2, r3, #1
 800263e:	f44f 4300 	mov.w	r3, #32768	; 0x8000
 8002642:	4093      	lsls	r3, r2
 8002644:	f3c1 1203 	ubfx	r2, r1, #4, #4
 8002648:	4984      	ldr	r1, [pc, #528]	; (800285c <HAL_RCC_OscConfig+0x298>)
 800264a:	5c8a      	ldrb	r2, [r1, r2]
 800264c:	40d3      	lsrs	r3, r2
 800264e:	4a84      	ldr	r2, [pc, #528]	; (8002860 <HAL_RCC_OscConfig+0x29c>)
 8002650:	6013      	str	r3, [r2, #0]
 8002652:	4b84      	ldr	r3, [pc, #528]	; (8002864 <HAL_RCC_OscConfig+0x2a0>)
 8002654:	6818      	ldr	r0, [r3, #0]
 8002656:	f7ff f9b7 	bl	80019c8 <HAL_InitTick>
 800265a:	2800      	cmp	r0, #0
 800265c:	d130      	bne.n	80026c0 <HAL_RCC_OscConfig+0xfc>
 800265e:	6823      	ldr	r3, [r4, #0]
 8002660:	0718      	lsls	r0, r3, #28
 8002662:	f100 80d7 	bmi.w	8002814 <HAL_RCC_OscConfig+0x250>
 8002666:	6823      	ldr	r3, [r4, #0]
 8002668:	0759      	lsls	r1, r3, #29
 800266a:	f100 8103 	bmi.w	8002874 <HAL_RCC_OscConfig+0x2b0>
 800266e:	6a60      	ldr	r0, [r4, #36]	; 0x24
 8002670:	2800      	cmp	r0, #0
 8002672:	f040 816b 	bne.w	800294c <HAL_RCC_OscConfig+0x388>
 8002676:	2000      	movs	r0, #0
 8002678:	e022      	b.n	80026c0 <HAL_RCC_OscConfig+0xfc>
 800267a:	2e08      	cmp	r6, #8
 800267c:	d002      	beq.n	8002684 <HAL_RCC_OscConfig+0xc0>
 800267e:	2e0c      	cmp	r6, #12
 8002680:	d108      	bne.n	8002694 <HAL_RCC_OscConfig+0xd0>
 8002682:	b13f      	cbz	r7, 8002694 <HAL_RCC_OscConfig+0xd0>
 8002684:	681b      	ldr	r3, [r3, #0]
 8002686:	039a      	lsls	r2, r3, #14
 8002688:	d5ab      	bpl.n	80025e2 <HAL_RCC_OscConfig+0x1e>
 800268a:	6863      	ldr	r3, [r4, #4]
 800268c:	2b00      	cmp	r3, #0
 800268e:	d1a8      	bne.n	80025e2 <HAL_RCC_OscConfig+0x1e>
 8002690:	2001      	movs	r0, #1
 8002692:	e015      	b.n	80026c0 <HAL_RCC_OscConfig+0xfc>
 8002694:	6862      	ldr	r2, [r4, #4]
 8002696:	2a01      	cmp	r2, #1
 8002698:	d115      	bne.n	80026c6 <HAL_RCC_OscConfig+0x102>
 800269a:	681a      	ldr	r2, [r3, #0]
 800269c:	f442 3280 	orr.w	r2, r2, #65536	; 0x10000
 80026a0:	601a      	str	r2, [r3, #0]
 80026a2:	f7ff f9d3 	bl	8001a4c <HAL_GetTick>
 80026a6:	4605      	mov	r5, r0
 80026a8:	f8df 81ac 	ldr.w	r8, [pc, #428]	; 8002858 <HAL_RCC_OscConfig+0x294>
 80026ac:	f8d8 3000 	ldr.w	r3, [r8]
 80026b0:	039b      	lsls	r3, r3, #14
 80026b2:	d496      	bmi.n	80025e2 <HAL_RCC_OscConfig+0x1e>
 80026b4:	f7ff f9ca 	bl	8001a4c <HAL_GetTick>
 80026b8:	1b40      	subs	r0, r0, r5
 80026ba:	2864      	cmp	r0, #100	; 0x64
 80026bc:	d9f6      	bls.n	80026ac <HAL_RCC_OscConfig+0xe8>
 80026be:	2003      	movs	r0, #3
 80026c0:	b003      	add	sp, #12
 80026c2:	e8bd 83f0 	ldmia.w	sp!, {r4, r5, r6, r7, r8, r9, pc}
 80026c6:	4d64      	ldr	r5, [pc, #400]	; (8002858 <HAL_RCC_OscConfig+0x294>)
 80026c8:	682b      	ldr	r3, [r5, #0]
 80026ca:	b9a2      	cbnz	r2, 80026f6 <HAL_RCC_OscConfig+0x132>
 80026cc:	f423 3380 	bic.w	r3, r3, #65536	; 0x10000
 80026d0:	602b      	str	r3, [r5, #0]
 80026d2:	682b      	ldr	r3, [r5, #0]
 80026d4:	f423 2380 	bic.w	r3, r3, #262144	; 0x40000
 80026d8:	602b      	str	r3, [r5, #0]
 80026da:	f7ff f9b7 	bl	8001a4c <HAL_GetTick>
 80026de:	4680      	mov	r8, r0
 80026e0:	682b      	ldr	r3, [r5, #0]
 80026e2:	0398      	lsls	r0, r3, #14
 80026e4:	f57f af7d 	bpl.w	80025e2 <HAL_RCC_OscConfig+0x1e>
 80026e8:	f7ff f9b0 	bl	8001a4c <HAL_GetTick>
 80026ec:	eba0 0008 	sub.w	r0, r0, r8
 80026f0:	2864      	cmp	r0, #100	; 0x64
 80026f2:	d9f5      	bls.n	80026e0 <HAL_RCC_OscConfig+0x11c>
 80026f4:	e7e3      	b.n	80026be <HAL_RCC_OscConfig+0xfa>
 80026f6:	2a05      	cmp	r2, #5
 80026f8:	bf0b      	itete	eq
 80026fa:	f443 2380 	orreq.w	r3, r3, #262144	; 0x40000
 80026fe:	f423 3380 	bicne.w	r3, r3, #65536	; 0x10000
 8002702:	602b      	streq	r3, [r5, #0]
 8002704:	602b      	strne	r3, [r5, #0]
 8002706:	bf0b      	itete	eq
 8002708:	682b      	ldreq	r3, [r5, #0]
 800270a:	682b      	ldrne	r3, [r5, #0]
 800270c:	f443 3380 	orreq.w	r3, r3, #65536	; 0x10000
 8002710:	f423 2380 	bicne.w	r3, r3, #262144	; 0x40000
 8002714:	602b      	str	r3, [r5, #0]
 8002716:	e7c4      	b.n	80026a2 <HAL_RCC_OscConfig+0xde>
 8002718:	2e04      	cmp	r6, #4
 800271a:	d002      	beq.n	8002722 <HAL_RCC_OscConfig+0x15e>
 800271c:	2e0c      	cmp	r6, #12
 800271e:	d10f      	bne.n	8002740 <HAL_RCC_OscConfig+0x17c>
 8002720:	b977      	cbnz	r7, 8002740 <HAL_RCC_OscConfig+0x17c>
 8002722:	4b4d      	ldr	r3, [pc, #308]	; (8002858 <HAL_RCC_OscConfig+0x294>)
 8002724:	681a      	ldr	r2, [r3, #0]
 8002726:	0791      	lsls	r1, r2, #30
 8002728:	d502      	bpl.n	8002730 <HAL_RCC_OscConfig+0x16c>
 800272a:	68e2      	ldr	r2, [r4, #12]
 800272c:	2a01      	cmp	r2, #1
 800272e:	d1af      	bne.n	8002690 <HAL_RCC_OscConfig+0xcc>
 8002730:	685a      	ldr	r2, [r3, #4]
 8002732:	6921      	ldr	r1, [r4, #16]
 8002734:	f422 52f8 	bic.w	r2, r2, #7936	; 0x1f00
 8002738:	ea42 2201 	orr.w	r2, r2, r1, lsl #8
 800273c:	605a      	str	r2, [r3, #4]
 800273e:	e754      	b.n	80025ea <HAL_RCC_OscConfig+0x26>
 8002740:	68e2      	ldr	r2, [r4, #12]
 8002742:	4b49      	ldr	r3, [pc, #292]	; (8002868 <HAL_RCC_OscConfig+0x2a4>)
 8002744:	b1b2      	cbz	r2, 8002774 <HAL_RCC_OscConfig+0x1b0>
 8002746:	2201      	movs	r2, #1
 8002748:	601a      	str	r2, [r3, #0]
 800274a:	f7ff f97f 	bl	8001a4c <HAL_GetTick>
 800274e:	4607      	mov	r7, r0
 8002750:	4d41      	ldr	r5, [pc, #260]	; (8002858 <HAL_RCC_OscConfig+0x294>)
 8002752:	682b      	ldr	r3, [r5, #0]
 8002754:	079a      	lsls	r2, r3, #30
 8002756:	d507      	bpl.n	8002768 <HAL_RCC_OscConfig+0x1a4>
 8002758:	686b      	ldr	r3, [r5, #4]
 800275a:	6922      	ldr	r2, [r4, #16]
 800275c:	f423 53f8 	bic.w	r3, r3, #7936	; 0x1f00
 8002760:	ea43 2302 	orr.w	r3, r3, r2, lsl #8
 8002764:	606b      	str	r3, [r5, #4]
 8002766:	e740      	b.n	80025ea <HAL_RCC_OscConfig+0x26>
 8002768:	f7ff f970 	bl	8001a4c <HAL_GetTick>
 800276c:	1bc0      	subs	r0, r0, r7
 800276e:	2802      	cmp	r0, #2
 8002770:	d9ef      	bls.n	8002752 <HAL_RCC_OscConfig+0x18e>
 8002772:	e7a4      	b.n	80026be <HAL_RCC_OscConfig+0xfa>
 8002774:	601a      	str	r2, [r3, #0]
 8002776:	f7ff f969 	bl	8001a4c <HAL_GetTick>
 800277a:	4605      	mov	r5, r0
 800277c:	4f36      	ldr	r7, [pc, #216]	; (8002858 <HAL_RCC_OscConfig+0x294>)
 800277e:	683b      	ldr	r3, [r7, #0]
 8002780:	079b      	lsls	r3, r3, #30
 8002782:	f57f af32 	bpl.w	80025ea <HAL_RCC_OscConfig+0x26>
 8002786:	f7ff f961 	bl	8001a4c <HAL_GetTick>
 800278a:	1b40      	subs	r0, r0, r5
 800278c:	2802      	cmp	r0, #2
 800278e:	d9f6      	bls.n	800277e <HAL_RCC_OscConfig+0x1ba>
 8002790:	e795      	b.n	80026be <HAL_RCC_OscConfig+0xfa>
 8002792:	686b      	ldr	r3, [r5, #4]
 8002794:	f423 4360 	bic.w	r3, r3, #57344	; 0xe000
 8002798:	4303      	orrs	r3, r0
 800279a:	606b      	str	r3, [r5, #4]
 800279c:	686b      	ldr	r3, [r5, #4]
 800279e:	69e2      	ldr	r2, [r4, #28]
 80027a0:	f023 437f 	bic.w	r3, r3, #4278190080	; 0xff000000
 80027a4:	ea43 6302 	orr.w	r3, r3, r2, lsl #24
 80027a8:	606b      	str	r3, [r5, #4]
 80027aa:	f7ff fecb 	bl	8002544 <RCC_SetFlashLatencyFromMSIRange>
 80027ae:	2800      	cmp	r0, #0
 80027b0:	f43f af40 	beq.w	8002634 <HAL_RCC_OscConfig+0x70>
 80027b4:	e76c      	b.n	8002690 <HAL_RCC_OscConfig+0xcc>
 80027b6:	69a2      	ldr	r2, [r4, #24]
 80027b8:	4b2c      	ldr	r3, [pc, #176]	; (800286c <HAL_RCC_OscConfig+0x2a8>)
 80027ba:	b1e2      	cbz	r2, 80027f6 <HAL_RCC_OscConfig+0x232>
 80027bc:	2201      	movs	r2, #1
 80027be:	601a      	str	r2, [r3, #0]
 80027c0:	f7ff f944 	bl	8001a4c <HAL_GetTick>
 80027c4:	4607      	mov	r7, r0
 80027c6:	4d24      	ldr	r5, [pc, #144]	; (8002858 <HAL_RCC_OscConfig+0x294>)
 80027c8:	682b      	ldr	r3, [r5, #0]
 80027ca:	059a      	lsls	r2, r3, #22
 80027cc:	d50d      	bpl.n	80027ea <HAL_RCC_OscConfig+0x226>
 80027ce:	686b      	ldr	r3, [r5, #4]
 80027d0:	6a22      	ldr	r2, [r4, #32]
 80027d2:	f423 4360 	bic.w	r3, r3, #57344	; 0xe000
 80027d6:	4313      	orrs	r3, r2
 80027d8:	606b      	str	r3, [r5, #4]
 80027da:	686b      	ldr	r3, [r5, #4]
 80027dc:	69e2      	ldr	r2, [r4, #28]
 80027de:	f023 437f 	bic.w	r3, r3, #4278190080	; 0xff000000
 80027e2:	ea43 6302 	orr.w	r3, r3, r2, lsl #24
 80027e6:	606b      	str	r3, [r5, #4]
 80027e8:	e739      	b.n	800265e <HAL_RCC_OscConfig+0x9a>
 80027ea:	f7ff f92f 	bl	8001a4c <HAL_GetTick>
 80027ee:	1bc0      	subs	r0, r0, r7
 80027f0:	2802      	cmp	r0, #2
 80027f2:	d9e9      	bls.n	80027c8 <HAL_RCC_OscConfig+0x204>
 80027f4:	e763      	b.n	80026be <HAL_RCC_OscConfig+0xfa>
 80027f6:	601a      	str	r2, [r3, #0]
 80027f8:	f7ff f928 	bl	8001a4c <HAL_GetTick>
 80027fc:	4605      	mov	r5, r0
 80027fe:	4f16      	ldr	r7, [pc, #88]	; (8002858 <HAL_RCC_OscConfig+0x294>)
 8002800:	683b      	ldr	r3, [r7, #0]
 8002802:	059b      	lsls	r3, r3, #22
 8002804:	f57f af2b 	bpl.w	800265e <HAL_RCC_OscConfig+0x9a>
 8002808:	f7ff f920 	bl	8001a4c <HAL_GetTick>
 800280c:	1b40      	subs	r0, r0, r5
 800280e:	2802      	cmp	r0, #2
 8002810:	d9f6      	bls.n	8002800 <HAL_RCC_OscConfig+0x23c>
 8002812:	e754      	b.n	80026be <HAL_RCC_OscConfig+0xfa>
 8002814:	6962      	ldr	r2, [r4, #20]
 8002816:	4b16      	ldr	r3, [pc, #88]	; (8002870 <HAL_RCC_OscConfig+0x2ac>)
 8002818:	b17a      	cbz	r2, 800283a <HAL_RCC_OscConfig+0x276>
 800281a:	2201      	movs	r2, #1
 800281c:	601a      	str	r2, [r3, #0]
 800281e:	f7ff f915 	bl	8001a4c <HAL_GetTick>
 8002822:	4605      	mov	r5, r0
 8002824:	4f0c      	ldr	r7, [pc, #48]	; (8002858 <HAL_RCC_OscConfig+0x294>)
 8002826:	6b7b      	ldr	r3, [r7, #52]	; 0x34
 8002828:	079a      	lsls	r2, r3, #30
 800282a:	f53f af1c 	bmi.w	8002666 <HAL_RCC_OscConfig+0xa2>
 800282e:	f7ff f90d 	bl	8001a4c <HAL_GetTick>
 8002832:	1b40      	subs	r0, r0, r5
 8002834:	2802      	cmp	r0, #2
 8002836:	d9f6      	bls.n	8002826 <HAL_RCC_OscConfig+0x262>
 8002838:	e741      	b.n	80026be <HAL_RCC_OscConfig+0xfa>
 800283a:	601a      	str	r2, [r3, #0]
 800283c:	f7ff f906 	bl	8001a4c <HAL_GetTick>
 8002840:	4605      	mov	r5, r0
 8002842:	4f05      	ldr	r7, [pc, #20]	; (8002858 <HAL_RCC_OscConfig+0x294>)
 8002844:	6b7b      	ldr	r3, [r7, #52]	; 0x34
 8002846:	079b      	lsls	r3, r3, #30
 8002848:	f57f af0d 	bpl.w	8002666 <HAL_RCC_OscConfig+0xa2>
 800284c:	f7ff f8fe 	bl	8001a4c <HAL_GetTick>
 8002850:	1b40      	subs	r0, r0, r5
 8002852:	2802      	cmp	r0, #2
 8002854:	d9f6      	bls.n	8002844 <HAL_RCC_OscConfig+0x280>
 8002856:	e732      	b.n	80026be <HAL_RCC_OscConfig+0xfa>
 8002858:	40023800 	.word	0x40023800
 800285c:	08003f48 	.word	0x08003f48
 8002860:	20000000 	.word	0x20000000
 8002864:	20000008 	.word	0x20000008
 8002868:	42470000 	.word	0x42470000
 800286c:	42470020 	.word	0x42470020
 8002870:	42470680 	.word	0x42470680
 8002874:	4b5f      	ldr	r3, [pc, #380]	; (80029f4 <HAL_RCC_OscConfig+0x430>)
 8002876:	6a5a      	ldr	r2, [r3, #36]	; 0x24
 8002878:	00d0      	lsls	r0, r2, #3
 800287a:	d429      	bmi.n	80028d0 <HAL_RCC_OscConfig+0x30c>
 800287c:	f04f 0801 	mov.w	r8, #1
 8002880:	6a5a      	ldr	r2, [r3, #36]	; 0x24
 8002882:	f042 5280 	orr.w	r2, r2, #268435456	; 0x10000000
 8002886:	625a      	str	r2, [r3, #36]	; 0x24
 8002888:	6a5b      	ldr	r3, [r3, #36]	; 0x24
 800288a:	f003 5380 	and.w	r3, r3, #268435456	; 0x10000000
 800288e:	9301      	str	r3, [sp, #4]
 8002890:	9b01      	ldr	r3, [sp, #4]
 8002892:	4d59      	ldr	r5, [pc, #356]	; (80029f8 <HAL_RCC_OscConfig+0x434>)
 8002894:	682b      	ldr	r3, [r5, #0]
 8002896:	05d9      	lsls	r1, r3, #23
 8002898:	d51d      	bpl.n	80028d6 <HAL_RCC_OscConfig+0x312>
 800289a:	68a3      	ldr	r3, [r4, #8]
 800289c:	4d55      	ldr	r5, [pc, #340]	; (80029f4 <HAL_RCC_OscConfig+0x430>)
 800289e:	2b01      	cmp	r3, #1
 80028a0:	d129      	bne.n	80028f6 <HAL_RCC_OscConfig+0x332>
 80028a2:	6b6b      	ldr	r3, [r5, #52]	; 0x34
 80028a4:	f443 7380 	orr.w	r3, r3, #256	; 0x100
 80028a8:	636b      	str	r3, [r5, #52]	; 0x34
 80028aa:	f7ff f8cf 	bl	8001a4c <HAL_GetTick>
 80028ae:	f241 3988 	movw	r9, #5000	; 0x1388
 80028b2:	4605      	mov	r5, r0
 80028b4:	4f4f      	ldr	r7, [pc, #316]	; (80029f4 <HAL_RCC_OscConfig+0x430>)
 80028b6:	6b7b      	ldr	r3, [r7, #52]	; 0x34
 80028b8:	059b      	lsls	r3, r3, #22
 80028ba:	d541      	bpl.n	8002940 <HAL_RCC_OscConfig+0x37c>
 80028bc:	f1b8 0f00 	cmp.w	r8, #0
 80028c0:	f43f aed5 	beq.w	800266e <HAL_RCC_OscConfig+0xaa>
 80028c4:	4a4b      	ldr	r2, [pc, #300]	; (80029f4 <HAL_RCC_OscConfig+0x430>)
 80028c6:	6a53      	ldr	r3, [r2, #36]	; 0x24
 80028c8:	f023 5380 	bic.w	r3, r3, #268435456	; 0x10000000
 80028cc:	6253      	str	r3, [r2, #36]	; 0x24
 80028ce:	e6ce      	b.n	800266e <HAL_RCC_OscConfig+0xaa>
 80028d0:	f04f 0800 	mov.w	r8, #0
 80028d4:	e7dd      	b.n	8002892 <HAL_RCC_OscConfig+0x2ce>
 80028d6:	682b      	ldr	r3, [r5, #0]
 80028d8:	f443 7380 	orr.w	r3, r3, #256	; 0x100
 80028dc:	602b      	str	r3, [r5, #0]
 80028de:	f7ff f8b5 	bl	8001a4c <HAL_GetTick>
 80028e2:	4607      	mov	r7, r0
 80028e4:	682b      	ldr	r3, [r5, #0]
 80028e6:	05da      	lsls	r2, r3, #23
 80028e8:	d4d7      	bmi.n	800289a <HAL_RCC_OscConfig+0x2d6>
 80028ea:	f7ff f8af 	bl	8001a4c <HAL_GetTick>
 80028ee:	1bc0      	subs	r0, r0, r7
 80028f0:	2864      	cmp	r0, #100	; 0x64
 80028f2:	d9f7      	bls.n	80028e4 <HAL_RCC_OscConfig+0x320>
 80028f4:	e6e3      	b.n	80026be <HAL_RCC_OscConfig+0xfa>
 80028f6:	b9ab      	cbnz	r3, 8002924 <HAL_RCC_OscConfig+0x360>
 80028f8:	6b6b      	ldr	r3, [r5, #52]	; 0x34
 80028fa:	f241 3988 	movw	r9, #5000	; 0x1388
 80028fe:	f423 7380 	bic.w	r3, r3, #256	; 0x100
 8002902:	636b      	str	r3, [r5, #52]	; 0x34
 8002904:	6b6b      	ldr	r3, [r5, #52]	; 0x34
 8002906:	f423 6380 	bic.w	r3, r3, #1024	; 0x400
 800290a:	636b      	str	r3, [r5, #52]	; 0x34
 800290c:	f7ff f89e 	bl	8001a4c <HAL_GetTick>
 8002910:	4607      	mov	r7, r0
 8002912:	6b6b      	ldr	r3, [r5, #52]	; 0x34
 8002914:	0598      	lsls	r0, r3, #22
 8002916:	d5d1      	bpl.n	80028bc <HAL_RCC_OscConfig+0x2f8>
 8002918:	f7ff f898 	bl	8001a4c <HAL_GetTick>
 800291c:	1bc0      	subs	r0, r0, r7
 800291e:	4548      	cmp	r0, r9
 8002920:	d9f7      	bls.n	8002912 <HAL_RCC_OscConfig+0x34e>
 8002922:	e6cc      	b.n	80026be <HAL_RCC_OscConfig+0xfa>
 8002924:	2b05      	cmp	r3, #5
 8002926:	6b6b      	ldr	r3, [r5, #52]	; 0x34
 8002928:	d103      	bne.n	8002932 <HAL_RCC_OscConfig+0x36e>
 800292a:	f443 6380 	orr.w	r3, r3, #1024	; 0x400
 800292e:	636b      	str	r3, [r5, #52]	; 0x34
 8002930:	e7b7      	b.n	80028a2 <HAL_RCC_OscConfig+0x2de>
 8002932:	f423 7380 	bic.w	r3, r3, #256	; 0x100
 8002936:	636b      	str	r3, [r5, #52]	; 0x34
 8002938:	6b6b      	ldr	r3, [r5, #52]	; 0x34
 800293a:	f423 6380 	bic.w	r3, r3, #1024	; 0x400
 800293e:	e7b3      	b.n	80028a8 <HAL_RCC_OscConfig+0x2e4>
 8002940:	f7ff f884 	bl	8001a4c <HAL_GetTick>
 8002944:	1b40      	subs	r0, r0, r5
 8002946:	4548      	cmp	r0, r9
 8002948:	d9b5      	bls.n	80028b6 <HAL_RCC_OscConfig+0x2f2>
 800294a:	e6b8      	b.n	80026be <HAL_RCC_OscConfig+0xfa>
 800294c:	2e0c      	cmp	r6, #12
 800294e:	d039      	beq.n	80029c4 <HAL_RCC_OscConfig+0x400>
 8002950:	2300      	movs	r3, #0
 8002952:	4d2a      	ldr	r5, [pc, #168]	; (80029fc <HAL_RCC_OscConfig+0x438>)
 8002954:	2802      	cmp	r0, #2
 8002956:	602b      	str	r3, [r5, #0]
 8002958:	d126      	bne.n	80029a8 <HAL_RCC_OscConfig+0x3e4>
 800295a:	f7ff f877 	bl	8001a4c <HAL_GetTick>
 800295e:	4607      	mov	r7, r0
 8002960:	4e24      	ldr	r6, [pc, #144]	; (80029f4 <HAL_RCC_OscConfig+0x430>)
 8002962:	6833      	ldr	r3, [r6, #0]
 8002964:	0199      	lsls	r1, r3, #6
 8002966:	d419      	bmi.n	800299c <HAL_RCC_OscConfig+0x3d8>
 8002968:	68b2      	ldr	r2, [r6, #8]
 800296a:	e9d4 310a 	ldrd	r3, r1, [r4, #40]	; 0x28
 800296e:	f422 027d 	bic.w	r2, r2, #16580608	; 0xfd0000
 8002972:	430b      	orrs	r3, r1
 8002974:	4313      	orrs	r3, r2
 8002976:	6b22      	ldr	r2, [r4, #48]	; 0x30
 8002978:	4313      	orrs	r3, r2
 800297a:	60b3      	str	r3, [r6, #8]
 800297c:	2301      	movs	r3, #1
 800297e:	602b      	str	r3, [r5, #0]
 8002980:	f7ff f864 	bl	8001a4c <HAL_GetTick>
 8002984:	4604      	mov	r4, r0
 8002986:	4d1b      	ldr	r5, [pc, #108]	; (80029f4 <HAL_RCC_OscConfig+0x430>)
 8002988:	682b      	ldr	r3, [r5, #0]
 800298a:	019a      	lsls	r2, r3, #6
 800298c:	f53f ae73 	bmi.w	8002676 <HAL_RCC_OscConfig+0xb2>
 8002990:	f7ff f85c 	bl	8001a4c <HAL_GetTick>
 8002994:	1b00      	subs	r0, r0, r4
 8002996:	2802      	cmp	r0, #2
 8002998:	d9f6      	bls.n	8002988 <HAL_RCC_OscConfig+0x3c4>
 800299a:	e690      	b.n	80026be <HAL_RCC_OscConfig+0xfa>
 800299c:	f7ff f856 	bl	8001a4c <HAL_GetTick>
 80029a0:	1bc0      	subs	r0, r0, r7
 80029a2:	2802      	cmp	r0, #2
 80029a4:	d9dd      	bls.n	8002962 <HAL_RCC_OscConfig+0x39e>
 80029a6:	e68a      	b.n	80026be <HAL_RCC_OscConfig+0xfa>
 80029a8:	f7ff f850 	bl	8001a4c <HAL_GetTick>
 80029ac:	4604      	mov	r4, r0
 80029ae:	4d11      	ldr	r5, [pc, #68]	; (80029f4 <HAL_RCC_OscConfig+0x430>)
 80029b0:	682b      	ldr	r3, [r5, #0]
 80029b2:	019b      	lsls	r3, r3, #6
 80029b4:	f57f ae5f 	bpl.w	8002676 <HAL_RCC_OscConfig+0xb2>
 80029b8:	f7ff f848 	bl	8001a4c <HAL_GetTick>
 80029bc:	1b00      	subs	r0, r0, r4
 80029be:	2802      	cmp	r0, #2
 80029c0:	d9f6      	bls.n	80029b0 <HAL_RCC_OscConfig+0x3ec>
 80029c2:	e67c      	b.n	80026be <HAL_RCC_OscConfig+0xfa>
 80029c4:	2801      	cmp	r0, #1
 80029c6:	f43f ae7b 	beq.w	80026c0 <HAL_RCC_OscConfig+0xfc>
 80029ca:	4b0a      	ldr	r3, [pc, #40]	; (80029f4 <HAL_RCC_OscConfig+0x430>)
 80029cc:	6aa2      	ldr	r2, [r4, #40]	; 0x28
 80029ce:	689b      	ldr	r3, [r3, #8]
 80029d0:	f403 3180 	and.w	r1, r3, #65536	; 0x10000
 80029d4:	4291      	cmp	r1, r2
 80029d6:	f47f ae5b 	bne.w	8002690 <HAL_RCC_OscConfig+0xcc>
 80029da:	6ae1      	ldr	r1, [r4, #44]	; 0x2c
 80029dc:	f403 1270 	and.w	r2, r3, #3932160	; 0x3c0000
 80029e0:	428a      	cmp	r2, r1
 80029e2:	f47f ae55 	bne.w	8002690 <HAL_RCC_OscConfig+0xcc>
 80029e6:	6b22      	ldr	r2, [r4, #48]	; 0x30
 80029e8:	f403 0340 	and.w	r3, r3, #12582912	; 0xc00000
 80029ec:	4293      	cmp	r3, r2
 80029ee:	f43f ae42 	beq.w	8002676 <HAL_RCC_OscConfig+0xb2>
 80029f2:	e64d      	b.n	8002690 <HAL_RCC_OscConfig+0xcc>
 80029f4:	40023800 	.word	0x40023800
 80029f8:	40007000 	.word	0x40007000
 80029fc:	42470060 	.word	0x42470060

08002a00 <HAL_RCC_GetSysClockFreq>:
 8002a00:	4b17      	ldr	r3, [pc, #92]	; (8002a60 <HAL_RCC_GetSysClockFreq+0x60>)
 8002a02:	e92d 4800 	stmdb	sp!, {fp, lr}
 8002a06:	689a      	ldr	r2, [r3, #8]
 8002a08:	f002 010c 	and.w	r1, r2, #12
 8002a0c:	2908      	cmp	r1, #8
 8002a0e:	d025      	beq.n	8002a5c <HAL_RCC_GetSysClockFreq+0x5c>
 8002a10:	290c      	cmp	r1, #12
 8002a12:	d003      	beq.n	8002a1c <HAL_RCC_GetSysClockFreq+0x1c>
 8002a14:	2904      	cmp	r1, #4
 8002a16:	d119      	bne.n	8002a4c <HAL_RCC_GetSysClockFreq+0x4c>
 8002a18:	4812      	ldr	r0, [pc, #72]	; (8002a64 <HAL_RCC_GetSysClockFreq+0x64>)
 8002a1a:	e015      	b.n	8002a48 <HAL_RCC_GetSysClockFreq+0x48>
 8002a1c:	689b      	ldr	r3, [r3, #8]
 8002a1e:	4812      	ldr	r0, [pc, #72]	; (8002a68 <HAL_RCC_GetSysClockFreq+0x68>)
 8002a20:	f3c2 4183 	ubfx	r1, r2, #18, #4
 8002a24:	f413 3380 	ands.w	r3, r3, #65536	; 0x10000
 8002a28:	f810 b001 	ldrb.w	fp, [r0, r1]
 8002a2c:	bf14      	ite	ne
 8002a2e:	4b0f      	ldrne	r3, [pc, #60]	; (8002a6c <HAL_RCC_GetSysClockFreq+0x6c>)
 8002a30:	490c      	ldreq	r1, [pc, #48]	; (8002a64 <HAL_RCC_GetSysClockFreq+0x64>)
 8002a32:	f3c2 5281 	ubfx	r2, r2, #22, #2
 8002a36:	bf16      	itet	ne
 8002a38:	fbab 0103 	umullne	r0, r1, fp, r3
 8002a3c:	fbab 0101 	umulleq	r0, r1, fp, r1
 8002a40:	2300      	movne	r3, #0
 8002a42:	3201      	adds	r2, #1
 8002a44:	f7fd ffc0 	bl	80009c8 <__aeabi_uldivmod>
 8002a48:	e8bd 8800 	ldmia.w	sp!, {fp, pc}
 8002a4c:	6858      	ldr	r0, [r3, #4]
 8002a4e:	f3c0 3042 	ubfx	r0, r0, #13, #3
 8002a52:	1c43      	adds	r3, r0, #1
 8002a54:	f44f 4000 	mov.w	r0, #32768	; 0x8000
 8002a58:	4098      	lsls	r0, r3
 8002a5a:	e7f5      	b.n	8002a48 <HAL_RCC_GetSysClockFreq+0x48>
 8002a5c:	4803      	ldr	r0, [pc, #12]	; (8002a6c <HAL_RCC_GetSysClockFreq+0x6c>)
 8002a5e:	e7f3      	b.n	8002a48 <HAL_RCC_GetSysClockFreq+0x48>
 8002a60:	40023800 	.word	0x40023800
 8002a64:	00f42400 	.word	0x00f42400
 8002a68:	08003f60 	.word	0x08003f60
 8002a6c:	007a1200 	.word	0x007a1200

08002a70 <HAL_RCC_ClockConfig>:
 8002a70:	e92d 41f0 	stmdb	sp!, {r4, r5, r6, r7, r8, lr}
 8002a74:	460e      	mov	r6, r1
 8002a76:	4605      	mov	r5, r0
 8002a78:	b910      	cbnz	r0, 8002a80 <HAL_RCC_ClockConfig+0x10>
 8002a7a:	2001      	movs	r0, #1
 8002a7c:	e8bd 81f0 	ldmia.w	sp!, {r4, r5, r6, r7, r8, pc}
 8002a80:	4b57      	ldr	r3, [pc, #348]	; (8002be0 <HAL_RCC_ClockConfig+0x170>)
 8002a82:	681a      	ldr	r2, [r3, #0]
 8002a84:	f002 0201 	and.w	r2, r2, #1
 8002a88:	428a      	cmp	r2, r1
 8002a8a:	d32a      	bcc.n	8002ae2 <HAL_RCC_ClockConfig+0x72>
 8002a8c:	682a      	ldr	r2, [r5, #0]
 8002a8e:	0794      	lsls	r4, r2, #30
 8002a90:	d438      	bmi.n	8002b04 <HAL_RCC_ClockConfig+0x94>
 8002a92:	07d0      	lsls	r0, r2, #31
 8002a94:	d43e      	bmi.n	8002b14 <HAL_RCC_ClockConfig+0xa4>
 8002a96:	4b52      	ldr	r3, [pc, #328]	; (8002be0 <HAL_RCC_ClockConfig+0x170>)
 8002a98:	681a      	ldr	r2, [r3, #0]
 8002a9a:	f002 0201 	and.w	r2, r2, #1
 8002a9e:	42b2      	cmp	r2, r6
 8002aa0:	f200 808c 	bhi.w	8002bbc <HAL_RCC_ClockConfig+0x14c>
 8002aa4:	682a      	ldr	r2, [r5, #0]
 8002aa6:	0751      	lsls	r1, r2, #29
 8002aa8:	f100 8091 	bmi.w	8002bce <HAL_RCC_ClockConfig+0x15e>
 8002aac:	0713      	lsls	r3, r2, #28
 8002aae:	d507      	bpl.n	8002ac0 <HAL_RCC_ClockConfig+0x50>
 8002ab0:	4a4c      	ldr	r2, [pc, #304]	; (8002be4 <HAL_RCC_ClockConfig+0x174>)
 8002ab2:	6929      	ldr	r1, [r5, #16]
 8002ab4:	6893      	ldr	r3, [r2, #8]
 8002ab6:	f423 5360 	bic.w	r3, r3, #14336	; 0x3800
 8002aba:	ea43 03c1 	orr.w	r3, r3, r1, lsl #3
 8002abe:	6093      	str	r3, [r2, #8]
 8002ac0:	f7ff ff9e 	bl	8002a00 <HAL_RCC_GetSysClockFreq>
 8002ac4:	e8bd 41f0 	ldmia.w	sp!, {r4, r5, r6, r7, r8, lr}
 8002ac8:	4b46      	ldr	r3, [pc, #280]	; (8002be4 <HAL_RCC_ClockConfig+0x174>)
 8002aca:	4a47      	ldr	r2, [pc, #284]	; (8002be8 <HAL_RCC_ClockConfig+0x178>)
 8002acc:	689b      	ldr	r3, [r3, #8]
 8002ace:	f3c3 1303 	ubfx	r3, r3, #4, #4
 8002ad2:	5cd3      	ldrb	r3, [r2, r3]
 8002ad4:	40d8      	lsrs	r0, r3
 8002ad6:	4b45      	ldr	r3, [pc, #276]	; (8002bec <HAL_RCC_ClockConfig+0x17c>)
 8002ad8:	6018      	str	r0, [r3, #0]
 8002ada:	4b45      	ldr	r3, [pc, #276]	; (8002bf0 <HAL_RCC_ClockConfig+0x180>)
 8002adc:	6818      	ldr	r0, [r3, #0]
 8002ade:	f7fe bf73 	b.w	80019c8 <HAL_InitTick>
 8002ae2:	2901      	cmp	r1, #1
 8002ae4:	bf02      	ittt	eq
 8002ae6:	681a      	ldreq	r2, [r3, #0]
 8002ae8:	f042 0204 	orreq.w	r2, r2, #4
 8002aec:	601a      	streq	r2, [r3, #0]
 8002aee:	681a      	ldr	r2, [r3, #0]
 8002af0:	f022 0201 	bic.w	r2, r2, #1
 8002af4:	430a      	orrs	r2, r1
 8002af6:	601a      	str	r2, [r3, #0]
 8002af8:	681b      	ldr	r3, [r3, #0]
 8002afa:	f003 0301 	and.w	r3, r3, #1
 8002afe:	428b      	cmp	r3, r1
 8002b00:	d1bb      	bne.n	8002a7a <HAL_RCC_ClockConfig+0xa>
 8002b02:	e7c3      	b.n	8002a8c <HAL_RCC_ClockConfig+0x1c>
 8002b04:	4937      	ldr	r1, [pc, #220]	; (8002be4 <HAL_RCC_ClockConfig+0x174>)
 8002b06:	68a8      	ldr	r0, [r5, #8]
 8002b08:	688b      	ldr	r3, [r1, #8]
 8002b0a:	f023 03f0 	bic.w	r3, r3, #240	; 0xf0
 8002b0e:	4303      	orrs	r3, r0
 8002b10:	608b      	str	r3, [r1, #8]
 8002b12:	e7be      	b.n	8002a92 <HAL_RCC_ClockConfig+0x22>
 8002b14:	686a      	ldr	r2, [r5, #4]
 8002b16:	4b33      	ldr	r3, [pc, #204]	; (8002be4 <HAL_RCC_ClockConfig+0x174>)
 8002b18:	2a02      	cmp	r2, #2
 8002b1a:	681b      	ldr	r3, [r3, #0]
 8002b1c:	d11c      	bne.n	8002b58 <HAL_RCC_ClockConfig+0xe8>
 8002b1e:	f413 3f00 	tst.w	r3, #131072	; 0x20000
 8002b22:	d0aa      	beq.n	8002a7a <HAL_RCC_ClockConfig+0xa>
 8002b24:	4c2f      	ldr	r4, [pc, #188]	; (8002be4 <HAL_RCC_ClockConfig+0x174>)
 8002b26:	f241 3888 	movw	r8, #5000	; 0x1388
 8002b2a:	68a3      	ldr	r3, [r4, #8]
 8002b2c:	f023 0303 	bic.w	r3, r3, #3
 8002b30:	4313      	orrs	r3, r2
 8002b32:	60a3      	str	r3, [r4, #8]
 8002b34:	f7fe ff8a 	bl	8001a4c <HAL_GetTick>
 8002b38:	686b      	ldr	r3, [r5, #4]
 8002b3a:	4607      	mov	r7, r0
 8002b3c:	2b02      	cmp	r3, #2
 8002b3e:	d118      	bne.n	8002b72 <HAL_RCC_ClockConfig+0x102>
 8002b40:	68a3      	ldr	r3, [r4, #8]
 8002b42:	f003 030c 	and.w	r3, r3, #12
 8002b46:	2b08      	cmp	r3, #8
 8002b48:	d0a5      	beq.n	8002a96 <HAL_RCC_ClockConfig+0x26>
 8002b4a:	f7fe ff7f 	bl	8001a4c <HAL_GetTick>
 8002b4e:	1bc0      	subs	r0, r0, r7
 8002b50:	4540      	cmp	r0, r8
 8002b52:	d9f5      	bls.n	8002b40 <HAL_RCC_ClockConfig+0xd0>
 8002b54:	2003      	movs	r0, #3
 8002b56:	e791      	b.n	8002a7c <HAL_RCC_ClockConfig+0xc>
 8002b58:	2a03      	cmp	r2, #3
 8002b5a:	d102      	bne.n	8002b62 <HAL_RCC_ClockConfig+0xf2>
 8002b5c:	f013 7f00 	tst.w	r3, #33554432	; 0x2000000
 8002b60:	e7df      	b.n	8002b22 <HAL_RCC_ClockConfig+0xb2>
 8002b62:	2a01      	cmp	r2, #1
 8002b64:	d102      	bne.n	8002b6c <HAL_RCC_ClockConfig+0xfc>
 8002b66:	f013 0f02 	tst.w	r3, #2
 8002b6a:	e7da      	b.n	8002b22 <HAL_RCC_ClockConfig+0xb2>
 8002b6c:	f413 7f00 	tst.w	r3, #512	; 0x200
 8002b70:	e7d7      	b.n	8002b22 <HAL_RCC_ClockConfig+0xb2>
 8002b72:	2b03      	cmp	r3, #3
 8002b74:	d10a      	bne.n	8002b8c <HAL_RCC_ClockConfig+0x11c>
 8002b76:	68a3      	ldr	r3, [r4, #8]
 8002b78:	f003 030c 	and.w	r3, r3, #12
 8002b7c:	2b0c      	cmp	r3, #12
 8002b7e:	d08a      	beq.n	8002a96 <HAL_RCC_ClockConfig+0x26>
 8002b80:	f7fe ff64 	bl	8001a4c <HAL_GetTick>
 8002b84:	1bc0      	subs	r0, r0, r7
 8002b86:	4540      	cmp	r0, r8
 8002b88:	d9f5      	bls.n	8002b76 <HAL_RCC_ClockConfig+0x106>
 8002b8a:	e7e3      	b.n	8002b54 <HAL_RCC_ClockConfig+0xe4>
 8002b8c:	2b01      	cmp	r3, #1
 8002b8e:	d110      	bne.n	8002bb2 <HAL_RCC_ClockConfig+0x142>
 8002b90:	68a3      	ldr	r3, [r4, #8]
 8002b92:	f003 030c 	and.w	r3, r3, #12
 8002b96:	2b04      	cmp	r3, #4
 8002b98:	f43f af7d 	beq.w	8002a96 <HAL_RCC_ClockConfig+0x26>
 8002b9c:	f7fe ff56 	bl	8001a4c <HAL_GetTick>
 8002ba0:	1bc0      	subs	r0, r0, r7
 8002ba2:	4540      	cmp	r0, r8
 8002ba4:	d9f4      	bls.n	8002b90 <HAL_RCC_ClockConfig+0x120>
 8002ba6:	e7d5      	b.n	8002b54 <HAL_RCC_ClockConfig+0xe4>
 8002ba8:	f7fe ff50 	bl	8001a4c <HAL_GetTick>
 8002bac:	1bc0      	subs	r0, r0, r7
 8002bae:	4540      	cmp	r0, r8
 8002bb0:	d8d0      	bhi.n	8002b54 <HAL_RCC_ClockConfig+0xe4>
 8002bb2:	68a3      	ldr	r3, [r4, #8]
 8002bb4:	f013 0f0c 	tst.w	r3, #12
 8002bb8:	d1f6      	bne.n	8002ba8 <HAL_RCC_ClockConfig+0x138>
 8002bba:	e76c      	b.n	8002a96 <HAL_RCC_ClockConfig+0x26>
 8002bbc:	681a      	ldr	r2, [r3, #0]
 8002bbe:	f022 0201 	bic.w	r2, r2, #1
 8002bc2:	601a      	str	r2, [r3, #0]
 8002bc4:	681b      	ldr	r3, [r3, #0]
 8002bc6:	07da      	lsls	r2, r3, #31
 8002bc8:	f57f af6c 	bpl.w	8002aa4 <HAL_RCC_ClockConfig+0x34>
 8002bcc:	e755      	b.n	8002a7a <HAL_RCC_ClockConfig+0xa>
 8002bce:	4905      	ldr	r1, [pc, #20]	; (8002be4 <HAL_RCC_ClockConfig+0x174>)
 8002bd0:	68e8      	ldr	r0, [r5, #12]
 8002bd2:	688b      	ldr	r3, [r1, #8]
 8002bd4:	f423 63e0 	bic.w	r3, r3, #1792	; 0x700
 8002bd8:	4303      	orrs	r3, r0
 8002bda:	608b      	str	r3, [r1, #8]
 8002bdc:	e766      	b.n	8002aac <HAL_RCC_ClockConfig+0x3c>
 8002bde:	bf00      	nop
 8002be0:	40023c00 	.word	0x40023c00
 8002be4:	40023800 	.word	0x40023800
 8002be8:	08003f48 	.word	0x08003f48
 8002bec:	20000000 	.word	0x20000000
 8002bf0:	20000008 	.word	0x20000008

08002bf4 <HAL_RCC_GetPCLK1Freq>:
 8002bf4:	4b04      	ldr	r3, [pc, #16]	; (8002c08 <HAL_RCC_GetPCLK1Freq+0x14>)
 8002bf6:	4a05      	ldr	r2, [pc, #20]	; (8002c0c <HAL_RCC_GetPCLK1Freq+0x18>)
 8002bf8:	689b      	ldr	r3, [r3, #8]
 8002bfa:	f3c3 2302 	ubfx	r3, r3, #8, #3
 8002bfe:	5cd3      	ldrb	r3, [r2, r3]
 8002c00:	4a03      	ldr	r2, [pc, #12]	; (8002c10 <HAL_RCC_GetPCLK1Freq+0x1c>)
 8002c02:	6810      	ldr	r0, [r2, #0]
 8002c04:	40d8      	lsrs	r0, r3
 8002c06:	4770      	bx	lr
 8002c08:	40023800 	.word	0x40023800
 8002c0c:	08003f58 	.word	0x08003f58
 8002c10:	20000000 	.word	0x20000000

08002c14 <HAL_RCC_GetPCLK2Freq>:
 8002c14:	4b04      	ldr	r3, [pc, #16]	; (8002c28 <HAL_RCC_GetPCLK2Freq+0x14>)
 8002c16:	4a05      	ldr	r2, [pc, #20]	; (8002c2c <HAL_RCC_GetPCLK2Freq+0x18>)
 8002c18:	689b      	ldr	r3, [r3, #8]
 8002c1a:	f3c3 23c2 	ubfx	r3, r3, #11, #3
 8002c1e:	5cd3      	ldrb	r3, [r2, r3]
 8002c20:	4a03      	ldr	r2, [pc, #12]	; (8002c30 <HAL_RCC_GetPCLK2Freq+0x1c>)
 8002c22:	6810      	ldr	r0, [r2, #0]
 8002c24:	40d8      	lsrs	r0, r3
 8002c26:	4770      	bx	lr
 8002c28:	40023800 	.word	0x40023800
 8002c2c:	08003f58 	.word	0x08003f58
 8002c30:	20000000 	.word	0x20000000

08002c34 <TIM_Base_SetConfig>:
 8002c34:	f1b0 4f80 	cmp.w	r0, #1073741824	; 0x40000000
 8002c38:	6803      	ldr	r3, [r0, #0]
 8002c3a:	d00e      	beq.n	8002c5a <TIM_Base_SetConfig+0x26>
 8002c3c:	4a1e      	ldr	r2, [pc, #120]	; (8002cb8 <TIM_Base_SetConfig+0x84>)
 8002c3e:	4290      	cmp	r0, r2
 8002c40:	d00b      	beq.n	8002c5a <TIM_Base_SetConfig+0x26>
 8002c42:	f502 6280 	add.w	r2, r2, #1024	; 0x400
 8002c46:	4290      	cmp	r0, r2
 8002c48:	d007      	beq.n	8002c5a <TIM_Base_SetConfig+0x26>
 8002c4a:	f502 6280 	add.w	r2, r2, #1024	; 0x400
 8002c4e:	4290      	cmp	r0, r2
 8002c50:	d003      	beq.n	8002c5a <TIM_Base_SetConfig+0x26>
 8002c52:	f502 427c 	add.w	r2, r2, #64512	; 0xfc00
 8002c56:	4290      	cmp	r0, r2
 8002c58:	d116      	bne.n	8002c88 <TIM_Base_SetConfig+0x54>
 8002c5a:	684a      	ldr	r2, [r1, #4]
 8002c5c:	f023 0370 	bic.w	r3, r3, #112	; 0x70
 8002c60:	f1b0 4f80 	cmp.w	r0, #1073741824	; 0x40000000
 8002c64:	ea43 0302 	orr.w	r3, r3, r2
 8002c68:	d015      	beq.n	8002c96 <TIM_Base_SetConfig+0x62>
 8002c6a:	4a13      	ldr	r2, [pc, #76]	; (8002cb8 <TIM_Base_SetConfig+0x84>)
 8002c6c:	4290      	cmp	r0, r2
 8002c6e:	d012      	beq.n	8002c96 <TIM_Base_SetConfig+0x62>
 8002c70:	f502 6280 	add.w	r2, r2, #1024	; 0x400
 8002c74:	4290      	cmp	r0, r2
 8002c76:	d00e      	beq.n	8002c96 <TIM_Base_SetConfig+0x62>
 8002c78:	f502 6280 	add.w	r2, r2, #1024	; 0x400
 8002c7c:	4290      	cmp	r0, r2
 8002c7e:	d00a      	beq.n	8002c96 <TIM_Base_SetConfig+0x62>
 8002c80:	f502 427c 	add.w	r2, r2, #64512	; 0xfc00
 8002c84:	4290      	cmp	r0, r2
 8002c86:	d006      	beq.n	8002c96 <TIM_Base_SetConfig+0x62>
 8002c88:	4a0c      	ldr	r2, [pc, #48]	; (8002cbc <TIM_Base_SetConfig+0x88>)
 8002c8a:	4290      	cmp	r0, r2
 8002c8c:	d003      	beq.n	8002c96 <TIM_Base_SetConfig+0x62>
 8002c8e:	f502 6280 	add.w	r2, r2, #1024	; 0x400
 8002c92:	4290      	cmp	r0, r2
 8002c94:	d103      	bne.n	8002c9e <TIM_Base_SetConfig+0x6a>
 8002c96:	68ca      	ldr	r2, [r1, #12]
 8002c98:	f423 7340 	bic.w	r3, r3, #768	; 0x300
 8002c9c:	4313      	orrs	r3, r2
 8002c9e:	690a      	ldr	r2, [r1, #16]
 8002ca0:	f023 0380 	bic.w	r3, r3, #128	; 0x80
 8002ca4:	4313      	orrs	r3, r2
 8002ca6:	6003      	str	r3, [r0, #0]
 8002ca8:	688b      	ldr	r3, [r1, #8]
 8002caa:	62c3      	str	r3, [r0, #44]	; 0x2c
 8002cac:	680b      	ldr	r3, [r1, #0]
 8002cae:	6283      	str	r3, [r0, #40]	; 0x28
 8002cb0:	2301      	movs	r3, #1
 8002cb2:	6143      	str	r3, [r0, #20]
 8002cb4:	4770      	bx	lr
 8002cb6:	bf00      	nop
 8002cb8:	40000400 	.word	0x40000400
 8002cbc:	40010c00 	.word	0x40010c00

08002cc0 <HAL_TIM_Base_Init>:
 8002cc0:	b510      	push	{r4, lr}
 8002cc2:	4604      	mov	r4, r0
 8002cc4:	b1f0      	cbz	r0, 8002d04 <HAL_TIM_Base_Init+0x44>
 8002cc6:	f890 3039 	ldrb.w	r3, [r0, #57]	; 0x39
 8002cca:	f003 02ff 	and.w	r2, r3, #255	; 0xff
 8002cce:	b91b      	cbnz	r3, 8002cd8 <HAL_TIM_Base_Init+0x18>
 8002cd0:	f880 2038 	strb.w	r2, [r0, #56]	; 0x38
 8002cd4:	f7fe fd76 	bl	80017c4 <HAL_TIM_Base_MspInit>
 8002cd8:	2302      	movs	r3, #2
 8002cda:	6820      	ldr	r0, [r4, #0]
 8002cdc:	f884 3039 	strb.w	r3, [r4, #57]	; 0x39
 8002ce0:	1d21      	adds	r1, r4, #4
 8002ce2:	f7ff ffa7 	bl	8002c34 <TIM_Base_SetConfig>
 8002ce6:	2301      	movs	r3, #1
 8002ce8:	2000      	movs	r0, #0
 8002cea:	f884 303e 	strb.w	r3, [r4, #62]	; 0x3e
 8002cee:	f884 303a 	strb.w	r3, [r4, #58]	; 0x3a
 8002cf2:	f884 303b 	strb.w	r3, [r4, #59]	; 0x3b
 8002cf6:	f884 303c 	strb.w	r3, [r4, #60]	; 0x3c
 8002cfa:	f884 303d 	strb.w	r3, [r4, #61]	; 0x3d
 8002cfe:	f884 3039 	strb.w	r3, [r4, #57]	; 0x39
 8002d02:	bd10      	pop	{r4, pc}
 8002d04:	2001      	movs	r0, #1
 8002d06:	e7fc      	b.n	8002d02 <HAL_TIM_Base_Init+0x42>

08002d08 <HAL_TIM_Base_Start>:
 8002d08:	f890 3039 	ldrb.w	r3, [r0, #57]	; 0x39
 8002d0c:	2b01      	cmp	r3, #1
 8002d0e:	d11c      	bne.n	8002d4a <HAL_TIM_Base_Start+0x42>
 8002d10:	2302      	movs	r3, #2
 8002d12:	f880 3039 	strb.w	r3, [r0, #57]	; 0x39
 8002d16:	6803      	ldr	r3, [r0, #0]
 8002d18:	f1b3 4f80 	cmp.w	r3, #1073741824	; 0x40000000
 8002d1c:	d00a      	beq.n	8002d34 <HAL_TIM_Base_Start+0x2c>
 8002d1e:	4a0c      	ldr	r2, [pc, #48]	; (8002d50 <HAL_TIM_Base_Start+0x48>)
 8002d20:	4293      	cmp	r3, r2
 8002d22:	d007      	beq.n	8002d34 <HAL_TIM_Base_Start+0x2c>
 8002d24:	f502 6280 	add.w	r2, r2, #1024	; 0x400
 8002d28:	4293      	cmp	r3, r2
 8002d2a:	d003      	beq.n	8002d34 <HAL_TIM_Base_Start+0x2c>
 8002d2c:	f502 3280 	add.w	r2, r2, #65536	; 0x10000
 8002d30:	4293      	cmp	r3, r2
 8002d32:	d104      	bne.n	8002d3e <HAL_TIM_Base_Start+0x36>
 8002d34:	689a      	ldr	r2, [r3, #8]
 8002d36:	f002 0207 	and.w	r2, r2, #7
 8002d3a:	2a06      	cmp	r2, #6
 8002d3c:	d003      	beq.n	8002d46 <HAL_TIM_Base_Start+0x3e>
 8002d3e:	681a      	ldr	r2, [r3, #0]
 8002d40:	f042 0201 	orr.w	r2, r2, #1
 8002d44:	601a      	str	r2, [r3, #0]
 8002d46:	2000      	movs	r0, #0
 8002d48:	4770      	bx	lr
 8002d4a:	2001      	movs	r0, #1
 8002d4c:	4770      	bx	lr
 8002d4e:	bf00      	nop
 8002d50:	40000400 	.word	0x40000400

08002d54 <HAL_TIM_ConfigClockSource>:
 8002d54:	b570      	push	{r4, r5, r6, lr}
 8002d56:	f890 3038 	ldrb.w	r3, [r0, #56]	; 0x38
 8002d5a:	4604      	mov	r4, r0
 8002d5c:	2b01      	cmp	r3, #1
 8002d5e:	f04f 0002 	mov.w	r0, #2
 8002d62:	d027      	beq.n	8002db4 <HAL_TIM_ConfigClockSource+0x60>
 8002d64:	2301      	movs	r3, #1
 8002d66:	f884 3038 	strb.w	r3, [r4, #56]	; 0x38
 8002d6a:	6823      	ldr	r3, [r4, #0]
 8002d6c:	f884 0039 	strb.w	r0, [r4, #57]	; 0x39
 8002d70:	689a      	ldr	r2, [r3, #8]
 8002d72:	f422 427f 	bic.w	r2, r2, #65280	; 0xff00
 8002d76:	f022 0277 	bic.w	r2, r2, #119	; 0x77
 8002d7a:	609a      	str	r2, [r3, #8]
 8002d7c:	680a      	ldr	r2, [r1, #0]
 8002d7e:	2a60      	cmp	r2, #96	; 0x60
 8002d80:	d056      	beq.n	8002e30 <HAL_TIM_ConfigClockSource+0xdc>
 8002d82:	d831      	bhi.n	8002de8 <HAL_TIM_ConfigClockSource+0x94>
 8002d84:	2a40      	cmp	r2, #64	; 0x40
 8002d86:	d06b      	beq.n	8002e60 <HAL_TIM_ConfigClockSource+0x10c>
 8002d88:	d815      	bhi.n	8002db6 <HAL_TIM_ConfigClockSource+0x62>
 8002d8a:	2a20      	cmp	r2, #32
 8002d8c:	d003      	beq.n	8002d96 <HAL_TIM_ConfigClockSource+0x42>
 8002d8e:	d809      	bhi.n	8002da4 <HAL_TIM_ConfigClockSource+0x50>
 8002d90:	f032 0110 	bics.w	r1, r2, #16
 8002d94:	d108      	bne.n	8002da8 <HAL_TIM_ConfigClockSource+0x54>
 8002d96:	6899      	ldr	r1, [r3, #8]
 8002d98:	f021 0170 	bic.w	r1, r1, #112	; 0x70
 8002d9c:	430a      	orrs	r2, r1
 8002d9e:	f042 0207 	orr.w	r2, r2, #7
 8002da2:	e043      	b.n	8002e2c <HAL_TIM_ConfigClockSource+0xd8>
 8002da4:	2a30      	cmp	r2, #48	; 0x30
 8002da6:	d0f6      	beq.n	8002d96 <HAL_TIM_ConfigClockSource+0x42>
 8002da8:	2301      	movs	r3, #1
 8002daa:	2000      	movs	r0, #0
 8002dac:	f884 3039 	strb.w	r3, [r4, #57]	; 0x39
 8002db0:	f884 0038 	strb.w	r0, [r4, #56]	; 0x38
 8002db4:	bd70      	pop	{r4, r5, r6, pc}
 8002db6:	2a50      	cmp	r2, #80	; 0x50
 8002db8:	d1f6      	bne.n	8002da8 <HAL_TIM_ConfigClockSource+0x54>
 8002dba:	6848      	ldr	r0, [r1, #4]
 8002dbc:	68ce      	ldr	r6, [r1, #12]
 8002dbe:	6a19      	ldr	r1, [r3, #32]
 8002dc0:	6a1d      	ldr	r5, [r3, #32]
 8002dc2:	f021 010a 	bic.w	r1, r1, #10
 8002dc6:	f025 0501 	bic.w	r5, r5, #1
 8002dca:	621d      	str	r5, [r3, #32]
 8002dcc:	699a      	ldr	r2, [r3, #24]
 8002dce:	4301      	orrs	r1, r0
 8002dd0:	f022 02f0 	bic.w	r2, r2, #240	; 0xf0
 8002dd4:	ea42 1206 	orr.w	r2, r2, r6, lsl #4
 8002dd8:	619a      	str	r2, [r3, #24]
 8002dda:	6219      	str	r1, [r3, #32]
 8002ddc:	689a      	ldr	r2, [r3, #8]
 8002dde:	f022 0270 	bic.w	r2, r2, #112	; 0x70
 8002de2:	f042 0257 	orr.w	r2, r2, #87	; 0x57
 8002de6:	e021      	b.n	8002e2c <HAL_TIM_ConfigClockSource+0xd8>
 8002de8:	2a70      	cmp	r2, #112	; 0x70
 8002dea:	d011      	beq.n	8002e10 <HAL_TIM_ConfigClockSource+0xbc>
 8002dec:	f5b2 5f00 	cmp.w	r2, #8192	; 0x2000
 8002df0:	d1da      	bne.n	8002da8 <HAL_TIM_ConfigClockSource+0x54>
 8002df2:	e9d1 5201 	ldrd	r5, r2, [r1, #4]
 8002df6:	6898      	ldr	r0, [r3, #8]
 8002df8:	68c9      	ldr	r1, [r1, #12]
 8002dfa:	432a      	orrs	r2, r5
 8002dfc:	f420 407f 	bic.w	r0, r0, #65280	; 0xff00
 8002e00:	ea42 2201 	orr.w	r2, r2, r1, lsl #8
 8002e04:	4302      	orrs	r2, r0
 8002e06:	609a      	str	r2, [r3, #8]
 8002e08:	689a      	ldr	r2, [r3, #8]
 8002e0a:	f442 4280 	orr.w	r2, r2, #16384	; 0x4000
 8002e0e:	e00d      	b.n	8002e2c <HAL_TIM_ConfigClockSource+0xd8>
 8002e10:	6898      	ldr	r0, [r3, #8]
 8002e12:	e9d1 5201 	ldrd	r5, r2, [r1, #4]
 8002e16:	68c9      	ldr	r1, [r1, #12]
 8002e18:	432a      	orrs	r2, r5
 8002e1a:	f420 407f 	bic.w	r0, r0, #65280	; 0xff00
 8002e1e:	ea42 2201 	orr.w	r2, r2, r1, lsl #8
 8002e22:	4302      	orrs	r2, r0
 8002e24:	609a      	str	r2, [r3, #8]
 8002e26:	689a      	ldr	r2, [r3, #8]
 8002e28:	f042 0277 	orr.w	r2, r2, #119	; 0x77
 8002e2c:	609a      	str	r2, [r3, #8]
 8002e2e:	e7bb      	b.n	8002da8 <HAL_TIM_ConfigClockSource+0x54>
 8002e30:	6a18      	ldr	r0, [r3, #32]
 8002e32:	684d      	ldr	r5, [r1, #4]
 8002e34:	f020 0010 	bic.w	r0, r0, #16
 8002e38:	68ce      	ldr	r6, [r1, #12]
 8002e3a:	6218      	str	r0, [r3, #32]
 8002e3c:	6999      	ldr	r1, [r3, #24]
 8002e3e:	6a1a      	ldr	r2, [r3, #32]
 8002e40:	f421 4170 	bic.w	r1, r1, #61440	; 0xf000
 8002e44:	f022 02a0 	bic.w	r2, r2, #160	; 0xa0
 8002e48:	ea42 1205 	orr.w	r2, r2, r5, lsl #4
 8002e4c:	ea41 3106 	orr.w	r1, r1, r6, lsl #12
 8002e50:	6199      	str	r1, [r3, #24]
 8002e52:	621a      	str	r2, [r3, #32]
 8002e54:	689a      	ldr	r2, [r3, #8]
 8002e56:	f022 0270 	bic.w	r2, r2, #112	; 0x70
 8002e5a:	f042 0267 	orr.w	r2, r2, #103	; 0x67
 8002e5e:	e7e5      	b.n	8002e2c <HAL_TIM_ConfigClockSource+0xd8>
 8002e60:	6848      	ldr	r0, [r1, #4]
 8002e62:	68ce      	ldr	r6, [r1, #12]
 8002e64:	6a19      	ldr	r1, [r3, #32]
 8002e66:	6a1d      	ldr	r5, [r3, #32]
 8002e68:	f021 010a 	bic.w	r1, r1, #10
 8002e6c:	f025 0501 	bic.w	r5, r5, #1
 8002e70:	621d      	str	r5, [r3, #32]
 8002e72:	699a      	ldr	r2, [r3, #24]
 8002e74:	4301      	orrs	r1, r0
 8002e76:	f022 02f0 	bic.w	r2, r2, #240	; 0xf0
 8002e7a:	ea42 1206 	orr.w	r2, r2, r6, lsl #4
 8002e7e:	619a      	str	r2, [r3, #24]
 8002e80:	6219      	str	r1, [r3, #32]
 8002e82:	689a      	ldr	r2, [r3, #8]
 8002e84:	f022 0270 	bic.w	r2, r2, #112	; 0x70
 8002e88:	f042 0247 	orr.w	r2, r2, #71	; 0x47
 8002e8c:	e7ce      	b.n	8002e2c <HAL_TIM_ConfigClockSource+0xd8>
	...

08002e90 <HAL_TIMEx_MasterConfigSynchronization>:
 8002e90:	b530      	push	{r4, r5, lr}
 8002e92:	f890 3038 	ldrb.w	r3, [r0, #56]	; 0x38
 8002e96:	4602      	mov	r2, r0
 8002e98:	2b01      	cmp	r3, #1
 8002e9a:	f04f 0002 	mov.w	r0, #2
 8002e9e:	d022      	beq.n	8002ee6 <HAL_TIMEx_MasterConfigSynchronization+0x56>
 8002ea0:	6813      	ldr	r3, [r2, #0]
 8002ea2:	f882 0039 	strb.w	r0, [r2, #57]	; 0x39
 8002ea6:	685c      	ldr	r4, [r3, #4]
 8002ea8:	680d      	ldr	r5, [r1, #0]
 8002eaa:	f024 0470 	bic.w	r4, r4, #112	; 0x70
 8002eae:	432c      	orrs	r4, r5
 8002eb0:	f1b3 4f80 	cmp.w	r3, #1073741824	; 0x40000000
 8002eb4:	6898      	ldr	r0, [r3, #8]
 8002eb6:	605c      	str	r4, [r3, #4]
 8002eb8:	d00a      	beq.n	8002ed0 <HAL_TIMEx_MasterConfigSynchronization+0x40>
 8002eba:	4c0b      	ldr	r4, [pc, #44]	; (8002ee8 <HAL_TIMEx_MasterConfigSynchronization+0x58>)
 8002ebc:	42a3      	cmp	r3, r4
 8002ebe:	d007      	beq.n	8002ed0 <HAL_TIMEx_MasterConfigSynchronization+0x40>
 8002ec0:	f504 6480 	add.w	r4, r4, #1024	; 0x400
 8002ec4:	42a3      	cmp	r3, r4
 8002ec6:	d003      	beq.n	8002ed0 <HAL_TIMEx_MasterConfigSynchronization+0x40>
 8002ec8:	f504 3480 	add.w	r4, r4, #65536	; 0x10000
 8002ecc:	42a3      	cmp	r3, r4
 8002ece:	d104      	bne.n	8002eda <HAL_TIMEx_MasterConfigSynchronization+0x4a>
 8002ed0:	6849      	ldr	r1, [r1, #4]
 8002ed2:	f020 0080 	bic.w	r0, r0, #128	; 0x80
 8002ed6:	4301      	orrs	r1, r0
 8002ed8:	6099      	str	r1, [r3, #8]
 8002eda:	2301      	movs	r3, #1
 8002edc:	2000      	movs	r0, #0
 8002ede:	f882 3039 	strb.w	r3, [r2, #57]	; 0x39
 8002ee2:	f882 0038 	strb.w	r0, [r2, #56]	; 0x38
 8002ee6:	bd30      	pop	{r4, r5, pc}
 8002ee8:	40000400 	.word	0x40000400

08002eec <UART_EndRxTransfer>:
 8002eec:	6803      	ldr	r3, [r0, #0]
 8002eee:	68da      	ldr	r2, [r3, #12]
 8002ef0:	f422 7290 	bic.w	r2, r2, #288	; 0x120
 8002ef4:	60da      	str	r2, [r3, #12]
 8002ef6:	695a      	ldr	r2, [r3, #20]
 8002ef8:	f022 0201 	bic.w	r2, r2, #1
 8002efc:	615a      	str	r2, [r3, #20]
 8002efe:	6b02      	ldr	r2, [r0, #48]	; 0x30
 8002f00:	2a01      	cmp	r2, #1
 8002f02:	bf02      	ittt	eq
 8002f04:	68da      	ldreq	r2, [r3, #12]
 8002f06:	f022 0210 	biceq.w	r2, r2, #16
 8002f0a:	60da      	streq	r2, [r3, #12]
 8002f0c:	2320      	movs	r3, #32
 8002f0e:	f880 303e 	strb.w	r3, [r0, #62]	; 0x3e
 8002f12:	2300      	movs	r3, #0
 8002f14:	6303      	str	r3, [r0, #48]	; 0x30
 8002f16:	4770      	bx	lr

08002f18 <UART_SetConfig>:
 8002f18:	b510      	push	{r4, lr}
 8002f1a:	4604      	mov	r4, r0
 8002f1c:	6802      	ldr	r2, [r0, #0]
 8002f1e:	68c1      	ldr	r1, [r0, #12]
 8002f20:	6913      	ldr	r3, [r2, #16]
 8002f22:	f423 5340 	bic.w	r3, r3, #12288	; 0x3000
 8002f26:	430b      	orrs	r3, r1
 8002f28:	6113      	str	r3, [r2, #16]
 8002f2a:	6883      	ldr	r3, [r0, #8]
 8002f2c:	6900      	ldr	r0, [r0, #16]
 8002f2e:	68d1      	ldr	r1, [r2, #12]
 8002f30:	4303      	orrs	r3, r0
 8002f32:	6960      	ldr	r0, [r4, #20]
 8002f34:	f421 4116 	bic.w	r1, r1, #38400	; 0x9600
 8002f38:	4303      	orrs	r3, r0
 8002f3a:	69e0      	ldr	r0, [r4, #28]
 8002f3c:	f021 010c 	bic.w	r1, r1, #12
 8002f40:	4303      	orrs	r3, r0
 8002f42:	430b      	orrs	r3, r1
 8002f44:	60d3      	str	r3, [r2, #12]
 8002f46:	6953      	ldr	r3, [r2, #20]
 8002f48:	69a1      	ldr	r1, [r4, #24]
 8002f4a:	f423 7340 	bic.w	r3, r3, #768	; 0x300
 8002f4e:	430b      	orrs	r3, r1
 8002f50:	6153      	str	r3, [r2, #20]
 8002f52:	4b1a      	ldr	r3, [pc, #104]	; (8002fbc <UART_SetConfig+0xa4>)
 8002f54:	429a      	cmp	r2, r3
 8002f56:	d120      	bne.n	8002f9a <UART_SetConfig+0x82>
 8002f58:	f7ff fe5c 	bl	8002c14 <HAL_RCC_GetPCLK2Freq>
 8002f5c:	2319      	movs	r3, #25
 8002f5e:	69e1      	ldr	r1, [r4, #28]
 8002f60:	4343      	muls	r3, r0
 8002f62:	e9d4 2000 	ldrd	r2, r0, [r4]
 8002f66:	f5b1 4f00 	cmp.w	r1, #32768	; 0x8000
 8002f6a:	f04f 0164 	mov.w	r1, #100	; 0x64
 8002f6e:	d117      	bne.n	8002fa0 <UART_SetConfig+0x88>
 8002f70:	0040      	lsls	r0, r0, #1
 8002f72:	fbb3 f0f0 	udiv	r0, r3, r0
 8002f76:	fbb0 f4f1 	udiv	r4, r0, r1
 8002f7a:	fb01 0314 	mls	r3, r1, r4, r0
 8002f7e:	00db      	lsls	r3, r3, #3
 8002f80:	3332      	adds	r3, #50	; 0x32
 8002f82:	fbb3 f3f1 	udiv	r3, r3, r1
 8002f86:	f003 0107 	and.w	r1, r3, #7
 8002f8a:	005b      	lsls	r3, r3, #1
 8002f8c:	eb01 1104 	add.w	r1, r1, r4, lsl #4
 8002f90:	f403 73f8 	and.w	r3, r3, #496	; 0x1f0
 8002f94:	440b      	add	r3, r1
 8002f96:	6093      	str	r3, [r2, #8]
 8002f98:	bd10      	pop	{r4, pc}
 8002f9a:	f7ff fe2b 	bl	8002bf4 <HAL_RCC_GetPCLK1Freq>
 8002f9e:	e7dd      	b.n	8002f5c <UART_SetConfig+0x44>
 8002fa0:	0080      	lsls	r0, r0, #2
 8002fa2:	fbb3 f0f0 	udiv	r0, r3, r0
 8002fa6:	fbb0 f4f1 	udiv	r4, r0, r1
 8002faa:	fb01 0314 	mls	r3, r1, r4, r0
 8002fae:	011b      	lsls	r3, r3, #4
 8002fb0:	3332      	adds	r3, #50	; 0x32
 8002fb2:	fbb3 f3f1 	udiv	r3, r3, r1
 8002fb6:	eb03 1304 	add.w	r3, r3, r4, lsl #4
 8002fba:	e7ec      	b.n	8002f96 <UART_SetConfig+0x7e>
 8002fbc:	40013800 	.word	0x40013800

08002fc0 <UART_WaitOnFlagUntilTimeout.constprop.0>:
 8002fc0:	b5f8      	push	{r3, r4, r5, r6, r7, lr}
 8002fc2:	4604      	mov	r4, r0
 8002fc4:	460e      	mov	r6, r1
 8002fc6:	4617      	mov	r7, r2
 8002fc8:	461d      	mov	r5, r3
 8002fca:	6822      	ldr	r2, [r4, #0]
 8002fcc:	6813      	ldr	r3, [r2, #0]
 8002fce:	ea36 0303 	bics.w	r3, r6, r3
 8002fd2:	d101      	bne.n	8002fd8 <UART_WaitOnFlagUntilTimeout.constprop.0+0x18>
 8002fd4:	2000      	movs	r0, #0
 8002fd6:	e014      	b.n	8003002 <UART_WaitOnFlagUntilTimeout.constprop.0+0x42>
 8002fd8:	1c6b      	adds	r3, r5, #1
 8002fda:	d0f7      	beq.n	8002fcc <UART_WaitOnFlagUntilTimeout.constprop.0+0xc>
 8002fdc:	b995      	cbnz	r5, 8003004 <UART_WaitOnFlagUntilTimeout.constprop.0+0x44>
 8002fde:	6823      	ldr	r3, [r4, #0]
 8002fe0:	2003      	movs	r0, #3
 8002fe2:	68da      	ldr	r2, [r3, #12]
 8002fe4:	f422 72d0 	bic.w	r2, r2, #416	; 0x1a0
 8002fe8:	60da      	str	r2, [r3, #12]
 8002fea:	695a      	ldr	r2, [r3, #20]
 8002fec:	f022 0201 	bic.w	r2, r2, #1
 8002ff0:	615a      	str	r2, [r3, #20]
 8002ff2:	2320      	movs	r3, #32
 8002ff4:	f884 303d 	strb.w	r3, [r4, #61]	; 0x3d
 8002ff8:	f884 303e 	strb.w	r3, [r4, #62]	; 0x3e
 8002ffc:	2300      	movs	r3, #0
 8002ffe:	f884 303c 	strb.w	r3, [r4, #60]	; 0x3c
 8003002:	bdf8      	pop	{r3, r4, r5, r6, r7, pc}
 8003004:	f7fe fd22 	bl	8001a4c <HAL_GetTick>
 8003008:	1bc0      	subs	r0, r0, r7
 800300a:	4285      	cmp	r5, r0
 800300c:	d2dd      	bcs.n	8002fca <UART_WaitOnFlagUntilTimeout.constprop.0+0xa>
 800300e:	e7e6      	b.n	8002fde <UART_WaitOnFlagUntilTimeout.constprop.0+0x1e>

08003010 <HAL_UART_Init>:
 8003010:	b510      	push	{r4, lr}
 8003012:	4604      	mov	r4, r0
 8003014:	b340      	cbz	r0, 8003068 <HAL_UART_Init+0x58>
 8003016:	f890 303d 	ldrb.w	r3, [r0, #61]	; 0x3d
 800301a:	f003 02ff 	and.w	r2, r3, #255	; 0xff
 800301e:	b91b      	cbnz	r3, 8003028 <HAL_UART_Init+0x18>
 8003020:	f880 203c 	strb.w	r2, [r0, #60]	; 0x3c
 8003024:	f7fe fc22 	bl	800186c <HAL_UART_MspInit>
 8003028:	2324      	movs	r3, #36	; 0x24
 800302a:	6822      	ldr	r2, [r4, #0]
 800302c:	f884 303d 	strb.w	r3, [r4, #61]	; 0x3d
 8003030:	68d3      	ldr	r3, [r2, #12]
 8003032:	4620      	mov	r0, r4
 8003034:	f423 5300 	bic.w	r3, r3, #8192	; 0x2000
 8003038:	60d3      	str	r3, [r2, #12]
 800303a:	f7ff ff6d 	bl	8002f18 <UART_SetConfig>
 800303e:	6823      	ldr	r3, [r4, #0]
 8003040:	2000      	movs	r0, #0
 8003042:	691a      	ldr	r2, [r3, #16]
 8003044:	f422 4290 	bic.w	r2, r2, #18432	; 0x4800
 8003048:	611a      	str	r2, [r3, #16]
 800304a:	695a      	ldr	r2, [r3, #20]
 800304c:	f022 022a 	bic.w	r2, r2, #42	; 0x2a
 8003050:	615a      	str	r2, [r3, #20]
 8003052:	68da      	ldr	r2, [r3, #12]
 8003054:	f442 5200 	orr.w	r2, r2, #8192	; 0x2000
 8003058:	60da      	str	r2, [r3, #12]
 800305a:	2320      	movs	r3, #32
 800305c:	6420      	str	r0, [r4, #64]	; 0x40
 800305e:	f884 303d 	strb.w	r3, [r4, #61]	; 0x3d
 8003062:	f884 303e 	strb.w	r3, [r4, #62]	; 0x3e
 8003066:	bd10      	pop	{r4, pc}
 8003068:	2001      	movs	r0, #1
 800306a:	e7fc      	b.n	8003066 <HAL_UART_Init+0x56>

0800306c <HAL_UART_Transmit>:
 800306c:	e92d 43f8 	stmdb	sp!, {r3, r4, r5, r6, r7, r8, r9, lr}
 8003070:	4699      	mov	r9, r3
 8003072:	f890 303d 	ldrb.w	r3, [r0, #61]	; 0x3d
 8003076:	4604      	mov	r4, r0
 8003078:	2b20      	cmp	r3, #32
 800307a:	460e      	mov	r6, r1
 800307c:	4617      	mov	r7, r2
 800307e:	d148      	bne.n	8003112 <HAL_UART_Transmit+0xa6>
 8003080:	2900      	cmp	r1, #0
 8003082:	d044      	beq.n	800310e <HAL_UART_Transmit+0xa2>
 8003084:	2a00      	cmp	r2, #0
 8003086:	d042      	beq.n	800310e <HAL_UART_Transmit+0xa2>
 8003088:	f890 303c 	ldrb.w	r3, [r0, #60]	; 0x3c
 800308c:	2b01      	cmp	r3, #1
 800308e:	d040      	beq.n	8003112 <HAL_UART_Transmit+0xa6>
 8003090:	2301      	movs	r3, #1
 8003092:	2500      	movs	r5, #0
 8003094:	f880 303c 	strb.w	r3, [r0, #60]	; 0x3c
 8003098:	2321      	movs	r3, #33	; 0x21
 800309a:	6405      	str	r5, [r0, #64]	; 0x40
 800309c:	f880 303d 	strb.w	r3, [r0, #61]	; 0x3d
 80030a0:	f7fe fcd4 	bl	8001a4c <HAL_GetTick>
 80030a4:	68a3      	ldr	r3, [r4, #8]
 80030a6:	4680      	mov	r8, r0
 80030a8:	f5b3 5f80 	cmp.w	r3, #4096	; 0x1000
 80030ac:	84a7      	strh	r7, [r4, #36]	; 0x24
 80030ae:	84e7      	strh	r7, [r4, #38]	; 0x26
 80030b0:	d103      	bne.n	80030ba <HAL_UART_Transmit+0x4e>
 80030b2:	6923      	ldr	r3, [r4, #16]
 80030b4:	b90b      	cbnz	r3, 80030ba <HAL_UART_Transmit+0x4e>
 80030b6:	4635      	mov	r5, r6
 80030b8:	461e      	mov	r6, r3
 80030ba:	2300      	movs	r3, #0
 80030bc:	f884 303c 	strb.w	r3, [r4, #60]	; 0x3c
 80030c0:	8ce3      	ldrh	r3, [r4, #38]	; 0x26
 80030c2:	b29b      	uxth	r3, r3
 80030c4:	b953      	cbnz	r3, 80030dc <HAL_UART_Transmit+0x70>
 80030c6:	464b      	mov	r3, r9
 80030c8:	4642      	mov	r2, r8
 80030ca:	2140      	movs	r1, #64	; 0x40
 80030cc:	4620      	mov	r0, r4
 80030ce:	f7ff ff77 	bl	8002fc0 <UART_WaitOnFlagUntilTimeout.constprop.0>
 80030d2:	b950      	cbnz	r0, 80030ea <HAL_UART_Transmit+0x7e>
 80030d4:	2320      	movs	r3, #32
 80030d6:	f884 303d 	strb.w	r3, [r4, #61]	; 0x3d
 80030da:	e007      	b.n	80030ec <HAL_UART_Transmit+0x80>
 80030dc:	464b      	mov	r3, r9
 80030de:	4642      	mov	r2, r8
 80030e0:	2180      	movs	r1, #128	; 0x80
 80030e2:	4620      	mov	r0, r4
 80030e4:	f7ff ff6c 	bl	8002fc0 <UART_WaitOnFlagUntilTimeout.constprop.0>
 80030e8:	b110      	cbz	r0, 80030f0 <HAL_UART_Transmit+0x84>
 80030ea:	2003      	movs	r0, #3
 80030ec:	e8bd 83f8 	ldmia.w	sp!, {r3, r4, r5, r6, r7, r8, r9, pc}
 80030f0:	6822      	ldr	r2, [r4, #0]
 80030f2:	b94e      	cbnz	r6, 8003108 <HAL_UART_Transmit+0x9c>
 80030f4:	f835 3b02 	ldrh.w	r3, [r5], #2
 80030f8:	f3c3 0308 	ubfx	r3, r3, #0, #9
 80030fc:	6053      	str	r3, [r2, #4]
 80030fe:	8ce1      	ldrh	r1, [r4, #38]	; 0x26
 8003100:	3901      	subs	r1, #1
 8003102:	b289      	uxth	r1, r1
 8003104:	84e1      	strh	r1, [r4, #38]	; 0x26
 8003106:	e7db      	b.n	80030c0 <HAL_UART_Transmit+0x54>
 8003108:	f816 3b01 	ldrb.w	r3, [r6], #1
 800310c:	e7f6      	b.n	80030fc <HAL_UART_Transmit+0x90>
 800310e:	2001      	movs	r0, #1
 8003110:	e7ec      	b.n	80030ec <HAL_UART_Transmit+0x80>
 8003112:	2002      	movs	r0, #2
 8003114:	e7ea      	b.n	80030ec <HAL_UART_Transmit+0x80>

08003116 <HAL_UART_Receive>:
 8003116:	e92d 43f8 	stmdb	sp!, {r3, r4, r5, r6, r7, r8, r9, lr}
 800311a:	461f      	mov	r7, r3
 800311c:	f890 303e 	ldrb.w	r3, [r0, #62]	; 0x3e
 8003120:	4604      	mov	r4, r0
 8003122:	2b20      	cmp	r3, #32
 8003124:	460e      	mov	r6, r1
 8003126:	4691      	mov	r9, r2
 8003128:	d14f      	bne.n	80031ca <HAL_UART_Receive+0xb4>
 800312a:	2900      	cmp	r1, #0
 800312c:	d04b      	beq.n	80031c6 <HAL_UART_Receive+0xb0>
 800312e:	2a00      	cmp	r2, #0
 8003130:	d049      	beq.n	80031c6 <HAL_UART_Receive+0xb0>
 8003132:	f890 303c 	ldrb.w	r3, [r0, #60]	; 0x3c
 8003136:	2b01      	cmp	r3, #1
 8003138:	d047      	beq.n	80031ca <HAL_UART_Receive+0xb4>
 800313a:	2301      	movs	r3, #1
 800313c:	2500      	movs	r5, #0
 800313e:	f880 303c 	strb.w	r3, [r0, #60]	; 0x3c
 8003142:	2322      	movs	r3, #34	; 0x22
 8003144:	6405      	str	r5, [r0, #64]	; 0x40
 8003146:	f880 303e 	strb.w	r3, [r0, #62]	; 0x3e
 800314a:	6305      	str	r5, [r0, #48]	; 0x30
 800314c:	f7fe fc7e 	bl	8001a4c <HAL_GetTick>
 8003150:	68a3      	ldr	r3, [r4, #8]
 8003152:	4680      	mov	r8, r0
 8003154:	f5b3 5f80 	cmp.w	r3, #4096	; 0x1000
 8003158:	f8a4 902c 	strh.w	r9, [r4, #44]	; 0x2c
 800315c:	f8a4 902e 	strh.w	r9, [r4, #46]	; 0x2e
 8003160:	d103      	bne.n	800316a <HAL_UART_Receive+0x54>
 8003162:	6923      	ldr	r3, [r4, #16]
 8003164:	b90b      	cbnz	r3, 800316a <HAL_UART_Receive+0x54>
 8003166:	4635      	mov	r5, r6
 8003168:	461e      	mov	r6, r3
 800316a:	2300      	movs	r3, #0
 800316c:	f884 303c 	strb.w	r3, [r4, #60]	; 0x3c
 8003170:	8de0      	ldrh	r0, [r4, #46]	; 0x2e
 8003172:	b280      	uxth	r0, r0
 8003174:	b920      	cbnz	r0, 8003180 <HAL_UART_Receive+0x6a>
 8003176:	2320      	movs	r3, #32
 8003178:	f884 303e 	strb.w	r3, [r4, #62]	; 0x3e
 800317c:	e8bd 83f8 	ldmia.w	sp!, {r3, r4, r5, r6, r7, r8, r9, pc}
 8003180:	463b      	mov	r3, r7
 8003182:	4642      	mov	r2, r8
 8003184:	2120      	movs	r1, #32
 8003186:	4620      	mov	r0, r4
 8003188:	f7ff ff1a 	bl	8002fc0 <UART_WaitOnFlagUntilTimeout.constprop.0>
 800318c:	b9f8      	cbnz	r0, 80031ce <HAL_UART_Receive+0xb8>
 800318e:	6823      	ldr	r3, [r4, #0]
 8003190:	b94e      	cbnz	r6, 80031a6 <HAL_UART_Receive+0x90>
 8003192:	685b      	ldr	r3, [r3, #4]
 8003194:	f3c3 0308 	ubfx	r3, r3, #0, #9
 8003198:	f825 3b02 	strh.w	r3, [r5], #2
 800319c:	8de3      	ldrh	r3, [r4, #46]	; 0x2e
 800319e:	3b01      	subs	r3, #1
 80031a0:	b29b      	uxth	r3, r3
 80031a2:	85e3      	strh	r3, [r4, #46]	; 0x2e
 80031a4:	e7e4      	b.n	8003170 <HAL_UART_Receive+0x5a>
 80031a6:	68a2      	ldr	r2, [r4, #8]
 80031a8:	f5b2 5f80 	cmp.w	r2, #4096	; 0x1000
 80031ac:	d002      	beq.n	80031b4 <HAL_UART_Receive+0x9e>
 80031ae:	b932      	cbnz	r2, 80031be <HAL_UART_Receive+0xa8>
 80031b0:	6922      	ldr	r2, [r4, #16]
 80031b2:	b922      	cbnz	r2, 80031be <HAL_UART_Receive+0xa8>
 80031b4:	6859      	ldr	r1, [r3, #4]
 80031b6:	b2c9      	uxtb	r1, r1
 80031b8:	f806 1b01 	strb.w	r1, [r6], #1
 80031bc:	e7ee      	b.n	800319c <HAL_UART_Receive+0x86>
 80031be:	6859      	ldr	r1, [r3, #4]
 80031c0:	f001 017f 	and.w	r1, r1, #127	; 0x7f
 80031c4:	e7f8      	b.n	80031b8 <HAL_UART_Receive+0xa2>
 80031c6:	2001      	movs	r0, #1
 80031c8:	e7d8      	b.n	800317c <HAL_UART_Receive+0x66>
 80031ca:	2002      	movs	r0, #2
 80031cc:	e7d6      	b.n	800317c <HAL_UART_Receive+0x66>
 80031ce:	2003      	movs	r0, #3
 80031d0:	e7d4      	b.n	800317c <HAL_UART_Receive+0x66>

080031d2 <HAL_UART_TxCpltCallback>:
 80031d2:	4770      	bx	lr

080031d4 <HAL_UART_RxHalfCpltCallback>:
 80031d4:	4770      	bx	lr

080031d6 <HAL_UART_ErrorCallback>:
 80031d6:	4770      	bx	lr

080031d8 <UART_DMAError>:
 80031d8:	b508      	push	{r3, lr}
 80031da:	6a40      	ldr	r0, [r0, #36]	; 0x24
 80031dc:	6803      	ldr	r3, [r0, #0]
 80031de:	695a      	ldr	r2, [r3, #20]
 80031e0:	f890 103d 	ldrb.w	r1, [r0, #61]	; 0x3d
 80031e4:	2921      	cmp	r1, #33	; 0x21
 80031e6:	d10a      	bne.n	80031fe <UART_DMAError+0x26>
 80031e8:	0612      	lsls	r2, r2, #24
 80031ea:	d508      	bpl.n	80031fe <UART_DMAError+0x26>
 80031ec:	2200      	movs	r2, #0
 80031ee:	84c2      	strh	r2, [r0, #38]	; 0x26
 80031f0:	68da      	ldr	r2, [r3, #12]
 80031f2:	f022 02c0 	bic.w	r2, r2, #192	; 0xc0
 80031f6:	60da      	str	r2, [r3, #12]
 80031f8:	2220      	movs	r2, #32
 80031fa:	f880 203d 	strb.w	r2, [r0, #61]	; 0x3d
 80031fe:	695b      	ldr	r3, [r3, #20]
 8003200:	f890 203e 	ldrb.w	r2, [r0, #62]	; 0x3e
 8003204:	2a22      	cmp	r2, #34	; 0x22
 8003206:	d105      	bne.n	8003214 <UART_DMAError+0x3c>
 8003208:	065b      	lsls	r3, r3, #25
 800320a:	d503      	bpl.n	8003214 <UART_DMAError+0x3c>
 800320c:	2300      	movs	r3, #0
 800320e:	85c3      	strh	r3, [r0, #46]	; 0x2e
 8003210:	f7ff fe6c 	bl	8002eec <UART_EndRxTransfer>
 8003214:	6c03      	ldr	r3, [r0, #64]	; 0x40
 8003216:	f043 0310 	orr.w	r3, r3, #16
 800321a:	6403      	str	r3, [r0, #64]	; 0x40
 800321c:	f7ff ffdb 	bl	80031d6 <HAL_UART_ErrorCallback>
 8003220:	bd08      	pop	{r3, pc}

08003222 <UART_DMAAbortOnError>:
 8003222:	b508      	push	{r3, lr}
 8003224:	2300      	movs	r3, #0
 8003226:	6a40      	ldr	r0, [r0, #36]	; 0x24
 8003228:	85c3      	strh	r3, [r0, #46]	; 0x2e
 800322a:	84c3      	strh	r3, [r0, #38]	; 0x26
 800322c:	f7ff ffd3 	bl	80031d6 <HAL_UART_ErrorCallback>
 8003230:	bd08      	pop	{r3, pc}

08003232 <HAL_UARTEx_RxEventCallback>:
 8003232:	4770      	bx	lr

08003234 <UART_Receive_IT>:
 8003234:	b513      	push	{r0, r1, r4, lr}
 8003236:	f890 303e 	ldrb.w	r3, [r0, #62]	; 0x3e
 800323a:	2b22      	cmp	r3, #34	; 0x22
 800323c:	d149      	bne.n	80032d2 <UART_Receive_IT+0x9e>
 800323e:	6881      	ldr	r1, [r0, #8]
 8003240:	6a83      	ldr	r3, [r0, #40]	; 0x28
 8003242:	f5b1 5f80 	cmp.w	r1, #4096	; 0x1000
 8003246:	6802      	ldr	r2, [r0, #0]
 8003248:	d133      	bne.n	80032b2 <UART_Receive_IT+0x7e>
 800324a:	6901      	ldr	r1, [r0, #16]
 800324c:	2900      	cmp	r1, #0
 800324e:	d133      	bne.n	80032b8 <UART_Receive_IT+0x84>
 8003250:	6852      	ldr	r2, [r2, #4]
 8003252:	f3c2 0208 	ubfx	r2, r2, #0, #9
 8003256:	f823 2b02 	strh.w	r2, [r3], #2
 800325a:	8dc4      	ldrh	r4, [r0, #46]	; 0x2e
 800325c:	6283      	str	r3, [r0, #40]	; 0x28
 800325e:	3c01      	subs	r4, #1
 8003260:	b2a4      	uxth	r4, r4
 8003262:	85c4      	strh	r4, [r0, #46]	; 0x2e
 8003264:	bb1c      	cbnz	r4, 80032ae <UART_Receive_IT+0x7a>
 8003266:	6803      	ldr	r3, [r0, #0]
 8003268:	68da      	ldr	r2, [r3, #12]
 800326a:	f022 0220 	bic.w	r2, r2, #32
 800326e:	60da      	str	r2, [r3, #12]
 8003270:	68da      	ldr	r2, [r3, #12]
 8003272:	f422 7280 	bic.w	r2, r2, #256	; 0x100
 8003276:	60da      	str	r2, [r3, #12]
 8003278:	695a      	ldr	r2, [r3, #20]
 800327a:	f022 0201 	bic.w	r2, r2, #1
 800327e:	615a      	str	r2, [r3, #20]
 8003280:	2220      	movs	r2, #32
 8003282:	f880 203e 	strb.w	r2, [r0, #62]	; 0x3e
 8003286:	6b02      	ldr	r2, [r0, #48]	; 0x30
 8003288:	2a01      	cmp	r2, #1
 800328a:	d11f      	bne.n	80032cc <UART_Receive_IT+0x98>
 800328c:	6304      	str	r4, [r0, #48]	; 0x30
 800328e:	68da      	ldr	r2, [r3, #12]
 8003290:	f022 0210 	bic.w	r2, r2, #16
 8003294:	60da      	str	r2, [r3, #12]
 8003296:	681a      	ldr	r2, [r3, #0]
 8003298:	06d2      	lsls	r2, r2, #27
 800329a:	d505      	bpl.n	80032a8 <UART_Receive_IT+0x74>
 800329c:	9401      	str	r4, [sp, #4]
 800329e:	681a      	ldr	r2, [r3, #0]
 80032a0:	9201      	str	r2, [sp, #4]
 80032a2:	685b      	ldr	r3, [r3, #4]
 80032a4:	9301      	str	r3, [sp, #4]
 80032a6:	9b01      	ldr	r3, [sp, #4]
 80032a8:	8d81      	ldrh	r1, [r0, #44]	; 0x2c
 80032aa:	f7ff ffc2 	bl	8003232 <HAL_UARTEx_RxEventCallback>
 80032ae:	2000      	movs	r0, #0
 80032b0:	e010      	b.n	80032d4 <UART_Receive_IT+0xa0>
 80032b2:	b939      	cbnz	r1, 80032c4 <UART_Receive_IT+0x90>
 80032b4:	6901      	ldr	r1, [r0, #16]
 80032b6:	b929      	cbnz	r1, 80032c4 <UART_Receive_IT+0x90>
 80032b8:	6852      	ldr	r2, [r2, #4]
 80032ba:	b2d2      	uxtb	r2, r2
 80032bc:	701a      	strb	r2, [r3, #0]
 80032be:	6a83      	ldr	r3, [r0, #40]	; 0x28
 80032c0:	3301      	adds	r3, #1
 80032c2:	e7ca      	b.n	800325a <UART_Receive_IT+0x26>
 80032c4:	6852      	ldr	r2, [r2, #4]
 80032c6:	f002 027f 	and.w	r2, r2, #127	; 0x7f
 80032ca:	e7f7      	b.n	80032bc <UART_Receive_IT+0x88>
 80032cc:	f7fd fff8 	bl	80012c0 <HAL_UART_RxCpltCallback>
 80032d0:	e7ed      	b.n	80032ae <UART_Receive_IT+0x7a>
 80032d2:	2002      	movs	r0, #2
 80032d4:	b002      	add	sp, #8
 80032d6:	bd10      	pop	{r4, pc}

080032d8 <HAL_UART_IRQHandler>:
 80032d8:	6803      	ldr	r3, [r0, #0]
 80032da:	b537      	push	{r0, r1, r2, r4, r5, lr}
 80032dc:	681a      	ldr	r2, [r3, #0]
 80032de:	4604      	mov	r4, r0
 80032e0:	f012 0f0f 	tst.w	r2, #15
 80032e4:	68d9      	ldr	r1, [r3, #12]
 80032e6:	695d      	ldr	r5, [r3, #20]
 80032e8:	d108      	bne.n	80032fc <HAL_UART_IRQHandler+0x24>
 80032ea:	0695      	lsls	r5, r2, #26
 80032ec:	d55f      	bpl.n	80033ae <HAL_UART_IRQHandler+0xd6>
 80032ee:	068d      	lsls	r5, r1, #26
 80032f0:	d55d      	bpl.n	80033ae <HAL_UART_IRQHandler+0xd6>
 80032f2:	b003      	add	sp, #12
 80032f4:	e8bd 4030 	ldmia.w	sp!, {r4, r5, lr}
 80032f8:	f7ff bf9c 	b.w	8003234 <UART_Receive_IT>
 80032fc:	f005 0001 	and.w	r0, r5, #1
 8003300:	f401 7590 	and.w	r5, r1, #288	; 0x120
 8003304:	4305      	orrs	r5, r0
 8003306:	d052      	beq.n	80033ae <HAL_UART_IRQHandler+0xd6>
 8003308:	07d5      	lsls	r5, r2, #31
 800330a:	d505      	bpl.n	8003318 <HAL_UART_IRQHandler+0x40>
 800330c:	05cb      	lsls	r3, r1, #23
 800330e:	bf42      	ittt	mi
 8003310:	6c23      	ldrmi	r3, [r4, #64]	; 0x40
 8003312:	f043 0301 	orrmi.w	r3, r3, #1
 8003316:	6423      	strmi	r3, [r4, #64]	; 0x40
 8003318:	0755      	lsls	r5, r2, #29
 800331a:	d504      	bpl.n	8003326 <HAL_UART_IRQHandler+0x4e>
 800331c:	b118      	cbz	r0, 8003326 <HAL_UART_IRQHandler+0x4e>
 800331e:	6c23      	ldr	r3, [r4, #64]	; 0x40
 8003320:	f043 0302 	orr.w	r3, r3, #2
 8003324:	6423      	str	r3, [r4, #64]	; 0x40
 8003326:	0793      	lsls	r3, r2, #30
 8003328:	d504      	bpl.n	8003334 <HAL_UART_IRQHandler+0x5c>
 800332a:	b118      	cbz	r0, 8003334 <HAL_UART_IRQHandler+0x5c>
 800332c:	6c23      	ldr	r3, [r4, #64]	; 0x40
 800332e:	f043 0304 	orr.w	r3, r3, #4
 8003332:	6423      	str	r3, [r4, #64]	; 0x40
 8003334:	0715      	lsls	r5, r2, #28
 8003336:	d507      	bpl.n	8003348 <HAL_UART_IRQHandler+0x70>
 8003338:	f001 0320 	and.w	r3, r1, #32
 800333c:	4303      	orrs	r3, r0
 800333e:	bf1e      	ittt	ne
 8003340:	6c23      	ldrne	r3, [r4, #64]	; 0x40
 8003342:	f043 0308 	orrne.w	r3, r3, #8
 8003346:	6423      	strne	r3, [r4, #64]	; 0x40
 8003348:	6c23      	ldr	r3, [r4, #64]	; 0x40
 800334a:	b353      	cbz	r3, 80033a2 <HAL_UART_IRQHandler+0xca>
 800334c:	0692      	lsls	r2, r2, #26
 800334e:	d504      	bpl.n	800335a <HAL_UART_IRQHandler+0x82>
 8003350:	068b      	lsls	r3, r1, #26
 8003352:	d502      	bpl.n	800335a <HAL_UART_IRQHandler+0x82>
 8003354:	4620      	mov	r0, r4
 8003356:	f7ff ff6d 	bl	8003234 <UART_Receive_IT>
 800335a:	6823      	ldr	r3, [r4, #0]
 800335c:	4620      	mov	r0, r4
 800335e:	695b      	ldr	r3, [r3, #20]
 8003360:	6c25      	ldr	r5, [r4, #64]	; 0x40
 8003362:	f003 0340 	and.w	r3, r3, #64	; 0x40
 8003366:	f005 0508 	and.w	r5, r5, #8
 800336a:	431d      	orrs	r5, r3
 800336c:	d01b      	beq.n	80033a6 <HAL_UART_IRQHandler+0xce>
 800336e:	f7ff fdbd 	bl	8002eec <UART_EndRxTransfer>
 8003372:	6823      	ldr	r3, [r4, #0]
 8003374:	695a      	ldr	r2, [r3, #20]
 8003376:	0655      	lsls	r5, r2, #25
 8003378:	d510      	bpl.n	800339c <HAL_UART_IRQHandler+0xc4>
 800337a:	695a      	ldr	r2, [r3, #20]
 800337c:	6ba0      	ldr	r0, [r4, #56]	; 0x38
 800337e:	f022 0240 	bic.w	r2, r2, #64	; 0x40
 8003382:	615a      	str	r2, [r3, #20]
 8003384:	b150      	cbz	r0, 800339c <HAL_UART_IRQHandler+0xc4>
 8003386:	4b53      	ldr	r3, [pc, #332]	; (80034d4 <HAL_UART_IRQHandler+0x1fc>)
 8003388:	6343      	str	r3, [r0, #52]	; 0x34
 800338a:	f7fe fc84 	bl	8001c96 <HAL_DMA_Abort_IT>
 800338e:	b140      	cbz	r0, 80033a2 <HAL_UART_IRQHandler+0xca>
 8003390:	6ba0      	ldr	r0, [r4, #56]	; 0x38
 8003392:	6b43      	ldr	r3, [r0, #52]	; 0x34
 8003394:	b003      	add	sp, #12
 8003396:	e8bd 4030 	ldmia.w	sp!, {r4, r5, lr}
 800339a:	4718      	bx	r3
 800339c:	4620      	mov	r0, r4
 800339e:	f7ff ff1a 	bl	80031d6 <HAL_UART_ErrorCallback>
 80033a2:	b003      	add	sp, #12
 80033a4:	bd30      	pop	{r4, r5, pc}
 80033a6:	f7ff ff16 	bl	80031d6 <HAL_UART_ErrorCallback>
 80033aa:	6425      	str	r5, [r4, #64]	; 0x40
 80033ac:	e7f9      	b.n	80033a2 <HAL_UART_IRQHandler+0xca>
 80033ae:	6b20      	ldr	r0, [r4, #48]	; 0x30
 80033b0:	2801      	cmp	r0, #1
 80033b2:	d155      	bne.n	8003460 <HAL_UART_IRQHandler+0x188>
 80033b4:	06d0      	lsls	r0, r2, #27
 80033b6:	d553      	bpl.n	8003460 <HAL_UART_IRQHandler+0x188>
 80033b8:	06cd      	lsls	r5, r1, #27
 80033ba:	d551      	bpl.n	8003460 <HAL_UART_IRQHandler+0x188>
 80033bc:	2100      	movs	r1, #0
 80033be:	9101      	str	r1, [sp, #4]
 80033c0:	681a      	ldr	r2, [r3, #0]
 80033c2:	9201      	str	r2, [sp, #4]
 80033c4:	685a      	ldr	r2, [r3, #4]
 80033c6:	9201      	str	r2, [sp, #4]
 80033c8:	9a01      	ldr	r2, [sp, #4]
 80033ca:	695a      	ldr	r2, [r3, #20]
 80033cc:	f012 0240 	ands.w	r2, r2, #64	; 0x40
 80033d0:	d02a      	beq.n	8003428 <HAL_UART_IRQHandler+0x150>
 80033d2:	6ba0      	ldr	r0, [r4, #56]	; 0x38
 80033d4:	6802      	ldr	r2, [r0, #0]
 80033d6:	6852      	ldr	r2, [r2, #4]
 80033d8:	b292      	uxth	r2, r2
 80033da:	2a00      	cmp	r2, #0
 80033dc:	d0e1      	beq.n	80033a2 <HAL_UART_IRQHandler+0xca>
 80033de:	8da5      	ldrh	r5, [r4, #44]	; 0x2c
 80033e0:	4295      	cmp	r5, r2
 80033e2:	d9de      	bls.n	80033a2 <HAL_UART_IRQHandler+0xca>
 80033e4:	85e2      	strh	r2, [r4, #46]	; 0x2e
 80033e6:	6982      	ldr	r2, [r0, #24]
 80033e8:	2a20      	cmp	r2, #32
 80033ea:	d015      	beq.n	8003418 <HAL_UART_IRQHandler+0x140>
 80033ec:	68da      	ldr	r2, [r3, #12]
 80033ee:	f422 7280 	bic.w	r2, r2, #256	; 0x100
 80033f2:	60da      	str	r2, [r3, #12]
 80033f4:	695a      	ldr	r2, [r3, #20]
 80033f6:	f022 0201 	bic.w	r2, r2, #1
 80033fa:	615a      	str	r2, [r3, #20]
 80033fc:	695a      	ldr	r2, [r3, #20]
 80033fe:	f022 0240 	bic.w	r2, r2, #64	; 0x40
 8003402:	615a      	str	r2, [r3, #20]
 8003404:	2220      	movs	r2, #32
 8003406:	f884 203e 	strb.w	r2, [r4, #62]	; 0x3e
 800340a:	6321      	str	r1, [r4, #48]	; 0x30
 800340c:	68da      	ldr	r2, [r3, #12]
 800340e:	f022 0210 	bic.w	r2, r2, #16
 8003412:	60da      	str	r2, [r3, #12]
 8003414:	f7fe fc1c 	bl	8001c50 <HAL_DMA_Abort>
 8003418:	8de3      	ldrh	r3, [r4, #46]	; 0x2e
 800341a:	8da1      	ldrh	r1, [r4, #44]	; 0x2c
 800341c:	1ac9      	subs	r1, r1, r3
 800341e:	b289      	uxth	r1, r1
 8003420:	4620      	mov	r0, r4
 8003422:	f7ff ff06 	bl	8003232 <HAL_UARTEx_RxEventCallback>
 8003426:	e7bc      	b.n	80033a2 <HAL_UART_IRQHandler+0xca>
 8003428:	8de1      	ldrh	r1, [r4, #46]	; 0x2e
 800342a:	b288      	uxth	r0, r1
 800342c:	8de1      	ldrh	r1, [r4, #46]	; 0x2e
 800342e:	b289      	uxth	r1, r1
 8003430:	2900      	cmp	r1, #0
 8003432:	d0b6      	beq.n	80033a2 <HAL_UART_IRQHandler+0xca>
 8003434:	8da1      	ldrh	r1, [r4, #44]	; 0x2c
 8003436:	1a09      	subs	r1, r1, r0
 8003438:	b289      	uxth	r1, r1
 800343a:	2900      	cmp	r1, #0
 800343c:	d0b1      	beq.n	80033a2 <HAL_UART_IRQHandler+0xca>
 800343e:	68d8      	ldr	r0, [r3, #12]
 8003440:	f420 7090 	bic.w	r0, r0, #288	; 0x120
 8003444:	60d8      	str	r0, [r3, #12]
 8003446:	6958      	ldr	r0, [r3, #20]
 8003448:	f020 0001 	bic.w	r0, r0, #1
 800344c:	6158      	str	r0, [r3, #20]
 800344e:	2020      	movs	r0, #32
 8003450:	f884 003e 	strb.w	r0, [r4, #62]	; 0x3e
 8003454:	6322      	str	r2, [r4, #48]	; 0x30
 8003456:	68da      	ldr	r2, [r3, #12]
 8003458:	f022 0210 	bic.w	r2, r2, #16
 800345c:	60da      	str	r2, [r3, #12]
 800345e:	e7df      	b.n	8003420 <HAL_UART_IRQHandler+0x148>
 8003460:	0610      	lsls	r0, r2, #24
 8003462:	d526      	bpl.n	80034b2 <HAL_UART_IRQHandler+0x1da>
 8003464:	060d      	lsls	r5, r1, #24
 8003466:	d524      	bpl.n	80034b2 <HAL_UART_IRQHandler+0x1da>
 8003468:	f894 203d 	ldrb.w	r2, [r4, #61]	; 0x3d
 800346c:	2a21      	cmp	r2, #33	; 0x21
 800346e:	d198      	bne.n	80033a2 <HAL_UART_IRQHandler+0xca>
 8003470:	68a1      	ldr	r1, [r4, #8]
 8003472:	6a22      	ldr	r2, [r4, #32]
 8003474:	f5b1 5f80 	cmp.w	r1, #4096	; 0x1000
 8003478:	d116      	bne.n	80034a8 <HAL_UART_IRQHandler+0x1d0>
 800347a:	6921      	ldr	r1, [r4, #16]
 800347c:	b9a1      	cbnz	r1, 80034a8 <HAL_UART_IRQHandler+0x1d0>
 800347e:	f832 1b02 	ldrh.w	r1, [r2], #2
 8003482:	f3c1 0108 	ubfx	r1, r1, #0, #9
 8003486:	6059      	str	r1, [r3, #4]
 8003488:	6222      	str	r2, [r4, #32]
 800348a:	8ce2      	ldrh	r2, [r4, #38]	; 0x26
 800348c:	3a01      	subs	r2, #1
 800348e:	b292      	uxth	r2, r2
 8003490:	84e2      	strh	r2, [r4, #38]	; 0x26
 8003492:	2a00      	cmp	r2, #0
 8003494:	d185      	bne.n	80033a2 <HAL_UART_IRQHandler+0xca>
 8003496:	68da      	ldr	r2, [r3, #12]
 8003498:	f022 0280 	bic.w	r2, r2, #128	; 0x80
 800349c:	60da      	str	r2, [r3, #12]
 800349e:	68da      	ldr	r2, [r3, #12]
 80034a0:	f042 0240 	orr.w	r2, r2, #64	; 0x40
 80034a4:	60da      	str	r2, [r3, #12]
 80034a6:	e77c      	b.n	80033a2 <HAL_UART_IRQHandler+0xca>
 80034a8:	1c51      	adds	r1, r2, #1
 80034aa:	6221      	str	r1, [r4, #32]
 80034ac:	7812      	ldrb	r2, [r2, #0]
 80034ae:	605a      	str	r2, [r3, #4]
 80034b0:	e7eb      	b.n	800348a <HAL_UART_IRQHandler+0x1b2>
 80034b2:	0650      	lsls	r0, r2, #25
 80034b4:	f57f af75 	bpl.w	80033a2 <HAL_UART_IRQHandler+0xca>
 80034b8:	064a      	lsls	r2, r1, #25
 80034ba:	f57f af72 	bpl.w	80033a2 <HAL_UART_IRQHandler+0xca>
 80034be:	68da      	ldr	r2, [r3, #12]
 80034c0:	4620      	mov	r0, r4
 80034c2:	f022 0240 	bic.w	r2, r2, #64	; 0x40
 80034c6:	60da      	str	r2, [r3, #12]
 80034c8:	2320      	movs	r3, #32
 80034ca:	f884 303d 	strb.w	r3, [r4, #61]	; 0x3d
 80034ce:	f7ff fe80 	bl	80031d2 <HAL_UART_TxCpltCallback>
 80034d2:	e766      	b.n	80033a2 <HAL_UART_IRQHandler+0xca>
 80034d4:	08003223 	.word	0x08003223

080034d8 <UART_DMARxHalfCplt>:
 80034d8:	6a40      	ldr	r0, [r0, #36]	; 0x24
 80034da:	b508      	push	{r3, lr}
 80034dc:	6b03      	ldr	r3, [r0, #48]	; 0x30
 80034de:	2b01      	cmp	r3, #1
 80034e0:	d104      	bne.n	80034ec <UART_DMARxHalfCplt+0x14>
 80034e2:	8d81      	ldrh	r1, [r0, #44]	; 0x2c
 80034e4:	0849      	lsrs	r1, r1, #1
 80034e6:	f7ff fea4 	bl	8003232 <HAL_UARTEx_RxEventCallback>
 80034ea:	bd08      	pop	{r3, pc}
 80034ec:	f7ff fe72 	bl	80031d4 <HAL_UART_RxHalfCpltCallback>
 80034f0:	e7fb      	b.n	80034ea <UART_DMARxHalfCplt+0x12>

080034f2 <UART_DMAReceiveCplt>:
 80034f2:	b508      	push	{r3, lr}
 80034f4:	4603      	mov	r3, r0
 80034f6:	681b      	ldr	r3, [r3, #0]
 80034f8:	6a40      	ldr	r0, [r0, #36]	; 0x24
 80034fa:	681b      	ldr	r3, [r3, #0]
 80034fc:	f013 0320 	ands.w	r3, r3, #32
 8003500:	d117      	bne.n	8003532 <UART_DMAReceiveCplt+0x40>
 8003502:	85c3      	strh	r3, [r0, #46]	; 0x2e
 8003504:	6803      	ldr	r3, [r0, #0]
 8003506:	68da      	ldr	r2, [r3, #12]
 8003508:	f422 7280 	bic.w	r2, r2, #256	; 0x100
 800350c:	60da      	str	r2, [r3, #12]
 800350e:	695a      	ldr	r2, [r3, #20]
 8003510:	f022 0201 	bic.w	r2, r2, #1
 8003514:	615a      	str	r2, [r3, #20]
 8003516:	695a      	ldr	r2, [r3, #20]
 8003518:	f022 0240 	bic.w	r2, r2, #64	; 0x40
 800351c:	615a      	str	r2, [r3, #20]
 800351e:	2220      	movs	r2, #32
 8003520:	f880 203e 	strb.w	r2, [r0, #62]	; 0x3e
 8003524:	6b02      	ldr	r2, [r0, #48]	; 0x30
 8003526:	2a01      	cmp	r2, #1
 8003528:	bf02      	ittt	eq
 800352a:	68da      	ldreq	r2, [r3, #12]
 800352c:	f022 0210 	biceq.w	r2, r2, #16
 8003530:	60da      	streq	r2, [r3, #12]
 8003532:	6b03      	ldr	r3, [r0, #48]	; 0x30
 8003534:	2b01      	cmp	r3, #1
 8003536:	d103      	bne.n	8003540 <UART_DMAReceiveCplt+0x4e>
 8003538:	8d81      	ldrh	r1, [r0, #44]	; 0x2c
 800353a:	f7ff fe7a 	bl	8003232 <HAL_UARTEx_RxEventCallback>
 800353e:	bd08      	pop	{r3, pc}
 8003540:	f7fd febe 	bl	80012c0 <HAL_UART_RxCpltCallback>
 8003544:	e7fb      	b.n	800353e <UART_DMAReceiveCplt+0x4c>
	...

08003548 <UART_Start_Receive_DMA>:
 8003548:	b573      	push	{r0, r1, r4, r5, r6, lr}
 800354a:	4613      	mov	r3, r2
 800354c:	2500      	movs	r5, #0
 800354e:	8582      	strh	r2, [r0, #44]	; 0x2c
 8003550:	2222      	movs	r2, #34	; 0x22
 8003552:	4604      	mov	r4, r0
 8003554:	6281      	str	r1, [r0, #40]	; 0x28
 8003556:	6405      	str	r5, [r0, #64]	; 0x40
 8003558:	f880 203e 	strb.w	r2, [r0, #62]	; 0x3e
 800355c:	6b80      	ldr	r0, [r0, #56]	; 0x38
 800355e:	4a12      	ldr	r2, [pc, #72]	; (80035a8 <UART_Start_Receive_DMA+0x60>)
 8003560:	6826      	ldr	r6, [r4, #0]
 8003562:	6282      	str	r2, [r0, #40]	; 0x28
 8003564:	4a11      	ldr	r2, [pc, #68]	; (80035ac <UART_Start_Receive_DMA+0x64>)
 8003566:	62c2      	str	r2, [r0, #44]	; 0x2c
 8003568:	4a11      	ldr	r2, [pc, #68]	; (80035b0 <UART_Start_Receive_DMA+0x68>)
 800356a:	e9c0 250c 	strd	r2, r5, [r0, #48]	; 0x30
 800356e:	460a      	mov	r2, r1
 8003570:	1d31      	adds	r1, r6, #4
 8003572:	f7fe fb2f 	bl	8001bd4 <HAL_DMA_Start_IT>
 8003576:	4628      	mov	r0, r5
 8003578:	6823      	ldr	r3, [r4, #0]
 800357a:	9501      	str	r5, [sp, #4]
 800357c:	681a      	ldr	r2, [r3, #0]
 800357e:	9201      	str	r2, [sp, #4]
 8003580:	685a      	ldr	r2, [r3, #4]
 8003582:	f884 503c 	strb.w	r5, [r4, #60]	; 0x3c
 8003586:	9201      	str	r2, [sp, #4]
 8003588:	9a01      	ldr	r2, [sp, #4]
 800358a:	68da      	ldr	r2, [r3, #12]
 800358c:	f442 7280 	orr.w	r2, r2, #256	; 0x100
 8003590:	60da      	str	r2, [r3, #12]
 8003592:	695a      	ldr	r2, [r3, #20]
 8003594:	f042 0201 	orr.w	r2, r2, #1
 8003598:	615a      	str	r2, [r3, #20]
 800359a:	695a      	ldr	r2, [r3, #20]
 800359c:	f042 0240 	orr.w	r2, r2, #64	; 0x40
 80035a0:	615a      	str	r2, [r3, #20]
 80035a2:	b002      	add	sp, #8
 80035a4:	bd70      	pop	{r4, r5, r6, pc}
 80035a6:	bf00      	nop
 80035a8:	080034f3 	.word	0x080034f3
 80035ac:	080034d9 	.word	0x080034d9
 80035b0:	080031d9 	.word	0x080031d9

080035b4 <HAL_UART_Receive_DMA>:
 80035b4:	b470      	push	{r4, r5, r6}
 80035b6:	f890 603e 	ldrb.w	r6, [r0, #62]	; 0x3e
 80035ba:	2e20      	cmp	r6, #32
 80035bc:	d110      	bne.n	80035e0 <HAL_UART_Receive_DMA+0x2c>
 80035be:	b161      	cbz	r1, 80035da <HAL_UART_Receive_DMA+0x26>
 80035c0:	b15a      	cbz	r2, 80035da <HAL_UART_Receive_DMA+0x26>
 80035c2:	f890 403c 	ldrb.w	r4, [r0, #60]	; 0x3c
 80035c6:	2c01      	cmp	r4, #1
 80035c8:	d00a      	beq.n	80035e0 <HAL_UART_Receive_DMA+0x2c>
 80035ca:	2401      	movs	r4, #1
 80035cc:	f880 403c 	strb.w	r4, [r0, #60]	; 0x3c
 80035d0:	2400      	movs	r4, #0
 80035d2:	6304      	str	r4, [r0, #48]	; 0x30
 80035d4:	bc70      	pop	{r4, r5, r6}
 80035d6:	f7ff bfb7 	b.w	8003548 <UART_Start_Receive_DMA>
 80035da:	2001      	movs	r0, #1
 80035dc:	bc70      	pop	{r4, r5, r6}
 80035de:	4770      	bx	lr
 80035e0:	2002      	movs	r0, #2
 80035e2:	e7fb      	b.n	80035dc <HAL_UART_Receive_DMA+0x28>

080035e4 <__errno>:
 80035e4:	4b01      	ldr	r3, [pc, #4]	; (80035ec <__errno+0x8>)
 80035e6:	6818      	ldr	r0, [r3, #0]
 80035e8:	4770      	bx	lr
 80035ea:	bf00      	nop
 80035ec:	2000000c 	.word	0x2000000c

080035f0 <__libc_init_array>:
 80035f0:	b570      	push	{r4, r5, r6, lr}
 80035f2:	2600      	movs	r6, #0
 80035f4:	4d0c      	ldr	r5, [pc, #48]	; (8003628 <__libc_init_array+0x38>)
 80035f6:	4c0d      	ldr	r4, [pc, #52]	; (800362c <__libc_init_array+0x3c>)
 80035f8:	1b64      	subs	r4, r4, r5
 80035fa:	10a4      	asrs	r4, r4, #2
 80035fc:	42a6      	cmp	r6, r4
 80035fe:	d109      	bne.n	8003614 <__libc_init_array+0x24>
 8003600:	f000 fc6a 	bl	8003ed8 <_init>
 8003604:	2600      	movs	r6, #0
 8003606:	4d0a      	ldr	r5, [pc, #40]	; (8003630 <__libc_init_array+0x40>)
 8003608:	4c0a      	ldr	r4, [pc, #40]	; (8003634 <__libc_init_array+0x44>)
 800360a:	1b64      	subs	r4, r4, r5
 800360c:	10a4      	asrs	r4, r4, #2
 800360e:	42a6      	cmp	r6, r4
 8003610:	d105      	bne.n	800361e <__libc_init_array+0x2e>
 8003612:	bd70      	pop	{r4, r5, r6, pc}
 8003614:	f855 3b04 	ldr.w	r3, [r5], #4
 8003618:	4798      	blx	r3
 800361a:	3601      	adds	r6, #1
 800361c:	e7ee      	b.n	80035fc <__libc_init_array+0xc>
 800361e:	f855 3b04 	ldr.w	r3, [r5], #4
 8003622:	4798      	blx	r3
 8003624:	3601      	adds	r6, #1
 8003626:	e7f2      	b.n	800360e <__libc_init_array+0x1e>
 8003628:	08003fa4 	.word	0x08003fa4
 800362c:	08003fa4 	.word	0x08003fa4
 8003630:	08003fa4 	.word	0x08003fa4
 8003634:	08003fa8 	.word	0x08003fa8

08003638 <memset>:
 8003638:	4603      	mov	r3, r0
 800363a:	4402      	add	r2, r0
 800363c:	4293      	cmp	r3, r2
 800363e:	d100      	bne.n	8003642 <memset+0xa>
 8003640:	4770      	bx	lr
 8003642:	f803 1b01 	strb.w	r1, [r3], #1
 8003646:	e7f9      	b.n	800363c <memset+0x4>

08003648 <siprintf>:
 8003648:	b40e      	push	{r1, r2, r3}
 800364a:	f06f 4100 	mvn.w	r1, #2147483648	; 0x80000000
 800364e:	b500      	push	{lr}
 8003650:	b09c      	sub	sp, #112	; 0x70
 8003652:	ab1d      	add	r3, sp, #116	; 0x74
 8003654:	9002      	str	r0, [sp, #8]
 8003656:	9006      	str	r0, [sp, #24]
 8003658:	9107      	str	r1, [sp, #28]
 800365a:	9104      	str	r1, [sp, #16]
 800365c:	4808      	ldr	r0, [pc, #32]	; (8003680 <siprintf+0x38>)
 800365e:	4909      	ldr	r1, [pc, #36]	; (8003684 <siprintf+0x3c>)
 8003660:	f853 2b04 	ldr.w	r2, [r3], #4
 8003664:	9105      	str	r1, [sp, #20]
 8003666:	6800      	ldr	r0, [r0, #0]
 8003668:	a902      	add	r1, sp, #8
 800366a:	9301      	str	r3, [sp, #4]
 800366c:	f000 f876 	bl	800375c <_svfiprintf_r>
 8003670:	2200      	movs	r2, #0
 8003672:	9b02      	ldr	r3, [sp, #8]
 8003674:	701a      	strb	r2, [r3, #0]
 8003676:	b01c      	add	sp, #112	; 0x70
 8003678:	f85d eb04 	ldr.w	lr, [sp], #4
 800367c:	b003      	add	sp, #12
 800367e:	4770      	bx	lr
 8003680:	2000000c 	.word	0x2000000c
 8003684:	ffff0208 	.word	0xffff0208

08003688 <strcat>:
 8003688:	4602      	mov	r2, r0
 800368a:	b510      	push	{r4, lr}
 800368c:	7814      	ldrb	r4, [r2, #0]
 800368e:	4613      	mov	r3, r2
 8003690:	3201      	adds	r2, #1
 8003692:	2c00      	cmp	r4, #0
 8003694:	d1fa      	bne.n	800368c <strcat+0x4>
 8003696:	3b01      	subs	r3, #1
 8003698:	f811 2b01 	ldrb.w	r2, [r1], #1
 800369c:	f803 2f01 	strb.w	r2, [r3, #1]!
 80036a0:	2a00      	cmp	r2, #0
 80036a2:	d1f9      	bne.n	8003698 <strcat+0x10>
 80036a4:	bd10      	pop	{r4, pc}

080036a6 <__ssputs_r>:
 80036a6:	e92d 47f0 	stmdb	sp!, {r4, r5, r6, r7, r8, r9, sl, lr}
 80036aa:	688e      	ldr	r6, [r1, #8]
 80036ac:	4682      	mov	sl, r0
 80036ae:	429e      	cmp	r6, r3
 80036b0:	460c      	mov	r4, r1
 80036b2:	4690      	mov	r8, r2
 80036b4:	461f      	mov	r7, r3
 80036b6:	d838      	bhi.n	800372a <__ssputs_r+0x84>
 80036b8:	898a      	ldrh	r2, [r1, #12]
 80036ba:	f412 6f90 	tst.w	r2, #1152	; 0x480
 80036be:	d032      	beq.n	8003726 <__ssputs_r+0x80>
 80036c0:	6825      	ldr	r5, [r4, #0]
 80036c2:	6909      	ldr	r1, [r1, #16]
 80036c4:	3301      	adds	r3, #1
 80036c6:	eba5 0901 	sub.w	r9, r5, r1
 80036ca:	6965      	ldr	r5, [r4, #20]
 80036cc:	444b      	add	r3, r9
 80036ce:	eb05 0545 	add.w	r5, r5, r5, lsl #1
 80036d2:	eb05 75d5 	add.w	r5, r5, r5, lsr #31
 80036d6:	106d      	asrs	r5, r5, #1
 80036d8:	429d      	cmp	r5, r3
 80036da:	bf38      	it	cc
 80036dc:	461d      	movcc	r5, r3
 80036de:	0553      	lsls	r3, r2, #21
 80036e0:	d531      	bpl.n	8003746 <__ssputs_r+0xa0>
 80036e2:	4629      	mov	r1, r5
 80036e4:	f000 fb52 	bl	8003d8c <_malloc_r>
 80036e8:	4606      	mov	r6, r0
 80036ea:	b950      	cbnz	r0, 8003702 <__ssputs_r+0x5c>
 80036ec:	230c      	movs	r3, #12
 80036ee:	f04f 30ff 	mov.w	r0, #4294967295
 80036f2:	f8ca 3000 	str.w	r3, [sl]
 80036f6:	89a3      	ldrh	r3, [r4, #12]
 80036f8:	f043 0340 	orr.w	r3, r3, #64	; 0x40
 80036fc:	81a3      	strh	r3, [r4, #12]
 80036fe:	e8bd 87f0 	ldmia.w	sp!, {r4, r5, r6, r7, r8, r9, sl, pc}
 8003702:	464a      	mov	r2, r9
 8003704:	6921      	ldr	r1, [r4, #16]
 8003706:	f000 facd 	bl	8003ca4 <memcpy>
 800370a:	89a3      	ldrh	r3, [r4, #12]
 800370c:	f423 6390 	bic.w	r3, r3, #1152	; 0x480
 8003710:	f043 0380 	orr.w	r3, r3, #128	; 0x80
 8003714:	81a3      	strh	r3, [r4, #12]
 8003716:	6126      	str	r6, [r4, #16]
 8003718:	444e      	add	r6, r9
 800371a:	6026      	str	r6, [r4, #0]
 800371c:	463e      	mov	r6, r7
 800371e:	6165      	str	r5, [r4, #20]
 8003720:	eba5 0509 	sub.w	r5, r5, r9
 8003724:	60a5      	str	r5, [r4, #8]
 8003726:	42be      	cmp	r6, r7
 8003728:	d900      	bls.n	800372c <__ssputs_r+0x86>
 800372a:	463e      	mov	r6, r7
 800372c:	4632      	mov	r2, r6
 800372e:	4641      	mov	r1, r8
 8003730:	6820      	ldr	r0, [r4, #0]
 8003732:	f000 fac5 	bl	8003cc0 <memmove>
 8003736:	68a3      	ldr	r3, [r4, #8]
 8003738:	6822      	ldr	r2, [r4, #0]
 800373a:	1b9b      	subs	r3, r3, r6
 800373c:	4432      	add	r2, r6
 800373e:	2000      	movs	r0, #0
 8003740:	60a3      	str	r3, [r4, #8]
 8003742:	6022      	str	r2, [r4, #0]
 8003744:	e7db      	b.n	80036fe <__ssputs_r+0x58>
 8003746:	462a      	mov	r2, r5
 8003748:	f000 fb7a 	bl	8003e40 <_realloc_r>
 800374c:	4606      	mov	r6, r0
 800374e:	2800      	cmp	r0, #0
 8003750:	d1e1      	bne.n	8003716 <__ssputs_r+0x70>
 8003752:	4650      	mov	r0, sl
 8003754:	6921      	ldr	r1, [r4, #16]
 8003756:	f000 facd 	bl	8003cf4 <_free_r>
 800375a:	e7c7      	b.n	80036ec <__ssputs_r+0x46>

0800375c <_svfiprintf_r>:
 800375c:	e92d 4ff0 	stmdb	sp!, {r4, r5, r6, r7, r8, r9, sl, fp, lr}
 8003760:	4698      	mov	r8, r3
 8003762:	898b      	ldrh	r3, [r1, #12]
 8003764:	4607      	mov	r7, r0
 8003766:	061b      	lsls	r3, r3, #24
 8003768:	460d      	mov	r5, r1
 800376a:	4614      	mov	r4, r2
 800376c:	b09d      	sub	sp, #116	; 0x74
 800376e:	d50e      	bpl.n	800378e <_svfiprintf_r+0x32>
 8003770:	690b      	ldr	r3, [r1, #16]
 8003772:	b963      	cbnz	r3, 800378e <_svfiprintf_r+0x32>
 8003774:	2140      	movs	r1, #64	; 0x40
 8003776:	f000 fb09 	bl	8003d8c <_malloc_r>
 800377a:	6028      	str	r0, [r5, #0]
 800377c:	6128      	str	r0, [r5, #16]
 800377e:	b920      	cbnz	r0, 800378a <_svfiprintf_r+0x2e>
 8003780:	230c      	movs	r3, #12
 8003782:	603b      	str	r3, [r7, #0]
 8003784:	f04f 30ff 	mov.w	r0, #4294967295
 8003788:	e0d1      	b.n	800392e <_svfiprintf_r+0x1d2>
 800378a:	2340      	movs	r3, #64	; 0x40
 800378c:	616b      	str	r3, [r5, #20]
 800378e:	2300      	movs	r3, #0
 8003790:	9309      	str	r3, [sp, #36]	; 0x24
 8003792:	2320      	movs	r3, #32
 8003794:	f88d 3029 	strb.w	r3, [sp, #41]	; 0x29
 8003798:	2330      	movs	r3, #48	; 0x30
 800379a:	f04f 0901 	mov.w	r9, #1
 800379e:	f8cd 800c 	str.w	r8, [sp, #12]
 80037a2:	f8df 81a4 	ldr.w	r8, [pc, #420]	; 8003948 <_svfiprintf_r+0x1ec>
 80037a6:	f88d 302a 	strb.w	r3, [sp, #42]	; 0x2a
 80037aa:	4623      	mov	r3, r4
 80037ac:	469a      	mov	sl, r3
 80037ae:	f813 2b01 	ldrb.w	r2, [r3], #1
 80037b2:	b10a      	cbz	r2, 80037b8 <_svfiprintf_r+0x5c>
 80037b4:	2a25      	cmp	r2, #37	; 0x25
 80037b6:	d1f9      	bne.n	80037ac <_svfiprintf_r+0x50>
 80037b8:	ebba 0b04 	subs.w	fp, sl, r4
 80037bc:	d00b      	beq.n	80037d6 <_svfiprintf_r+0x7a>
 80037be:	465b      	mov	r3, fp
 80037c0:	4622      	mov	r2, r4
 80037c2:	4629      	mov	r1, r5
 80037c4:	4638      	mov	r0, r7
 80037c6:	f7ff ff6e 	bl	80036a6 <__ssputs_r>
 80037ca:	3001      	adds	r0, #1
 80037cc:	f000 80aa 	beq.w	8003924 <_svfiprintf_r+0x1c8>
 80037d0:	9a09      	ldr	r2, [sp, #36]	; 0x24
 80037d2:	445a      	add	r2, fp
 80037d4:	9209      	str	r2, [sp, #36]	; 0x24
 80037d6:	f89a 3000 	ldrb.w	r3, [sl]
 80037da:	2b00      	cmp	r3, #0
 80037dc:	f000 80a2 	beq.w	8003924 <_svfiprintf_r+0x1c8>
 80037e0:	2300      	movs	r3, #0
 80037e2:	f04f 32ff 	mov.w	r2, #4294967295
 80037e6:	e9cd 2305 	strd	r2, r3, [sp, #20]
 80037ea:	f10a 0a01 	add.w	sl, sl, #1
 80037ee:	9304      	str	r3, [sp, #16]
 80037f0:	9307      	str	r3, [sp, #28]
 80037f2:	f88d 3053 	strb.w	r3, [sp, #83]	; 0x53
 80037f6:	931a      	str	r3, [sp, #104]	; 0x68
 80037f8:	4654      	mov	r4, sl
 80037fa:	2205      	movs	r2, #5
 80037fc:	f814 1b01 	ldrb.w	r1, [r4], #1
 8003800:	4851      	ldr	r0, [pc, #324]	; (8003948 <_svfiprintf_r+0x1ec>)
 8003802:	f000 fa41 	bl	8003c88 <memchr>
 8003806:	9a04      	ldr	r2, [sp, #16]
 8003808:	b9d8      	cbnz	r0, 8003842 <_svfiprintf_r+0xe6>
 800380a:	06d0      	lsls	r0, r2, #27
 800380c:	bf44      	itt	mi
 800380e:	2320      	movmi	r3, #32
 8003810:	f88d 3053 	strbmi.w	r3, [sp, #83]	; 0x53
 8003814:	0711      	lsls	r1, r2, #28
 8003816:	bf44      	itt	mi
 8003818:	232b      	movmi	r3, #43	; 0x2b
 800381a:	f88d 3053 	strbmi.w	r3, [sp, #83]	; 0x53
 800381e:	f89a 3000 	ldrb.w	r3, [sl]
 8003822:	2b2a      	cmp	r3, #42	; 0x2a
 8003824:	d015      	beq.n	8003852 <_svfiprintf_r+0xf6>
 8003826:	4654      	mov	r4, sl
 8003828:	2000      	movs	r0, #0
 800382a:	f04f 0c0a 	mov.w	ip, #10
 800382e:	9a07      	ldr	r2, [sp, #28]
 8003830:	4621      	mov	r1, r4
 8003832:	f811 3b01 	ldrb.w	r3, [r1], #1
 8003836:	3b30      	subs	r3, #48	; 0x30
 8003838:	2b09      	cmp	r3, #9
 800383a:	d94e      	bls.n	80038da <_svfiprintf_r+0x17e>
 800383c:	b1b0      	cbz	r0, 800386c <_svfiprintf_r+0x110>
 800383e:	9207      	str	r2, [sp, #28]
 8003840:	e014      	b.n	800386c <_svfiprintf_r+0x110>
 8003842:	eba0 0308 	sub.w	r3, r0, r8
 8003846:	fa09 f303 	lsl.w	r3, r9, r3
 800384a:	4313      	orrs	r3, r2
 800384c:	46a2      	mov	sl, r4
 800384e:	9304      	str	r3, [sp, #16]
 8003850:	e7d2      	b.n	80037f8 <_svfiprintf_r+0x9c>
 8003852:	9b03      	ldr	r3, [sp, #12]
 8003854:	1d19      	adds	r1, r3, #4
 8003856:	681b      	ldr	r3, [r3, #0]
 8003858:	9103      	str	r1, [sp, #12]
 800385a:	2b00      	cmp	r3, #0
 800385c:	bfbb      	ittet	lt
 800385e:	425b      	neglt	r3, r3
 8003860:	f042 0202 	orrlt.w	r2, r2, #2
 8003864:	9307      	strge	r3, [sp, #28]
 8003866:	9307      	strlt	r3, [sp, #28]
 8003868:	bfb8      	it	lt
 800386a:	9204      	strlt	r2, [sp, #16]
 800386c:	7823      	ldrb	r3, [r4, #0]
 800386e:	2b2e      	cmp	r3, #46	; 0x2e
 8003870:	d10c      	bne.n	800388c <_svfiprintf_r+0x130>
 8003872:	7863      	ldrb	r3, [r4, #1]
 8003874:	2b2a      	cmp	r3, #42	; 0x2a
 8003876:	d135      	bne.n	80038e4 <_svfiprintf_r+0x188>
 8003878:	9b03      	ldr	r3, [sp, #12]
 800387a:	3402      	adds	r4, #2
 800387c:	1d1a      	adds	r2, r3, #4
 800387e:	681b      	ldr	r3, [r3, #0]
 8003880:	9203      	str	r2, [sp, #12]
 8003882:	2b00      	cmp	r3, #0
 8003884:	bfb8      	it	lt
 8003886:	f04f 33ff 	movlt.w	r3, #4294967295
 800388a:	9305      	str	r3, [sp, #20]
 800388c:	f8df a0c8 	ldr.w	sl, [pc, #200]	; 8003958 <_svfiprintf_r+0x1fc>
 8003890:	2203      	movs	r2, #3
 8003892:	4650      	mov	r0, sl
 8003894:	7821      	ldrb	r1, [r4, #0]
 8003896:	f000 f9f7 	bl	8003c88 <memchr>
 800389a:	b140      	cbz	r0, 80038ae <_svfiprintf_r+0x152>
 800389c:	2340      	movs	r3, #64	; 0x40
 800389e:	eba0 000a 	sub.w	r0, r0, sl
 80038a2:	fa03 f000 	lsl.w	r0, r3, r0
 80038a6:	9b04      	ldr	r3, [sp, #16]
 80038a8:	3401      	adds	r4, #1
 80038aa:	4303      	orrs	r3, r0
 80038ac:	9304      	str	r3, [sp, #16]
 80038ae:	f814 1b01 	ldrb.w	r1, [r4], #1
 80038b2:	2206      	movs	r2, #6
 80038b4:	4825      	ldr	r0, [pc, #148]	; (800394c <_svfiprintf_r+0x1f0>)
 80038b6:	f88d 1028 	strb.w	r1, [sp, #40]	; 0x28
 80038ba:	f000 f9e5 	bl	8003c88 <memchr>
 80038be:	2800      	cmp	r0, #0
 80038c0:	d038      	beq.n	8003934 <_svfiprintf_r+0x1d8>
 80038c2:	4b23      	ldr	r3, [pc, #140]	; (8003950 <_svfiprintf_r+0x1f4>)
 80038c4:	bb1b      	cbnz	r3, 800390e <_svfiprintf_r+0x1b2>
 80038c6:	9b03      	ldr	r3, [sp, #12]
 80038c8:	3307      	adds	r3, #7
 80038ca:	f023 0307 	bic.w	r3, r3, #7
 80038ce:	3308      	adds	r3, #8
 80038d0:	9303      	str	r3, [sp, #12]
 80038d2:	9b09      	ldr	r3, [sp, #36]	; 0x24
 80038d4:	4433      	add	r3, r6
 80038d6:	9309      	str	r3, [sp, #36]	; 0x24
 80038d8:	e767      	b.n	80037aa <_svfiprintf_r+0x4e>
 80038da:	460c      	mov	r4, r1
 80038dc:	2001      	movs	r0, #1
 80038de:	fb0c 3202 	mla	r2, ip, r2, r3
 80038e2:	e7a5      	b.n	8003830 <_svfiprintf_r+0xd4>
 80038e4:	2300      	movs	r3, #0
 80038e6:	f04f 0c0a 	mov.w	ip, #10
 80038ea:	4619      	mov	r1, r3
 80038ec:	3401      	adds	r4, #1
 80038ee:	9305      	str	r3, [sp, #20]
 80038f0:	4620      	mov	r0, r4
 80038f2:	f810 2b01 	ldrb.w	r2, [r0], #1
 80038f6:	3a30      	subs	r2, #48	; 0x30
 80038f8:	2a09      	cmp	r2, #9
 80038fa:	d903      	bls.n	8003904 <_svfiprintf_r+0x1a8>
 80038fc:	2b00      	cmp	r3, #0
 80038fe:	d0c5      	beq.n	800388c <_svfiprintf_r+0x130>
 8003900:	9105      	str	r1, [sp, #20]
 8003902:	e7c3      	b.n	800388c <_svfiprintf_r+0x130>
 8003904:	4604      	mov	r4, r0
 8003906:	2301      	movs	r3, #1
 8003908:	fb0c 2101 	mla	r1, ip, r1, r2
 800390c:	e7f0      	b.n	80038f0 <_svfiprintf_r+0x194>
 800390e:	ab03      	add	r3, sp, #12
 8003910:	9300      	str	r3, [sp, #0]
 8003912:	462a      	mov	r2, r5
 8003914:	4638      	mov	r0, r7
 8003916:	4b0f      	ldr	r3, [pc, #60]	; (8003954 <_svfiprintf_r+0x1f8>)
 8003918:	a904      	add	r1, sp, #16
 800391a:	f3af 8000 	nop.w
 800391e:	1c42      	adds	r2, r0, #1
 8003920:	4606      	mov	r6, r0
 8003922:	d1d6      	bne.n	80038d2 <_svfiprintf_r+0x176>
 8003924:	89ab      	ldrh	r3, [r5, #12]
 8003926:	065b      	lsls	r3, r3, #25
 8003928:	f53f af2c 	bmi.w	8003784 <_svfiprintf_r+0x28>
 800392c:	9809      	ldr	r0, [sp, #36]	; 0x24
 800392e:	b01d      	add	sp, #116	; 0x74
 8003930:	e8bd 8ff0 	ldmia.w	sp!, {r4, r5, r6, r7, r8, r9, sl, fp, pc}
 8003934:	ab03      	add	r3, sp, #12
 8003936:	9300      	str	r3, [sp, #0]
 8003938:	462a      	mov	r2, r5
 800393a:	4638      	mov	r0, r7
 800393c:	4b05      	ldr	r3, [pc, #20]	; (8003954 <_svfiprintf_r+0x1f8>)
 800393e:	a904      	add	r1, sp, #16
 8003940:	f000 f87c 	bl	8003a3c <_printf_i>
 8003944:	e7eb      	b.n	800391e <_svfiprintf_r+0x1c2>
 8003946:	bf00      	nop
 8003948:	08003f69 	.word	0x08003f69
 800394c:	08003f73 	.word	0x08003f73
 8003950:	00000000 	.word	0x00000000
 8003954:	080036a7 	.word	0x080036a7
 8003958:	08003f6f 	.word	0x08003f6f

0800395c <_printf_common>:
 800395c:	e92d 47f0 	stmdb	sp!, {r4, r5, r6, r7, r8, r9, sl, lr}
 8003960:	4616      	mov	r6, r2
 8003962:	4699      	mov	r9, r3
 8003964:	688a      	ldr	r2, [r1, #8]
 8003966:	690b      	ldr	r3, [r1, #16]
 8003968:	4607      	mov	r7, r0
 800396a:	4293      	cmp	r3, r2
 800396c:	bfb8      	it	lt
 800396e:	4613      	movlt	r3, r2
 8003970:	6033      	str	r3, [r6, #0]
 8003972:	f891 2043 	ldrb.w	r2, [r1, #67]	; 0x43
 8003976:	460c      	mov	r4, r1
 8003978:	f8dd 8020 	ldr.w	r8, [sp, #32]
 800397c:	b10a      	cbz	r2, 8003982 <_printf_common+0x26>
 800397e:	3301      	adds	r3, #1
 8003980:	6033      	str	r3, [r6, #0]
 8003982:	6823      	ldr	r3, [r4, #0]
 8003984:	0699      	lsls	r1, r3, #26
 8003986:	bf42      	ittt	mi
 8003988:	6833      	ldrmi	r3, [r6, #0]
 800398a:	3302      	addmi	r3, #2
 800398c:	6033      	strmi	r3, [r6, #0]
 800398e:	6825      	ldr	r5, [r4, #0]
 8003990:	f015 0506 	ands.w	r5, r5, #6
 8003994:	d106      	bne.n	80039a4 <_printf_common+0x48>
 8003996:	f104 0a19 	add.w	sl, r4, #25
 800399a:	68e3      	ldr	r3, [r4, #12]
 800399c:	6832      	ldr	r2, [r6, #0]
 800399e:	1a9b      	subs	r3, r3, r2
 80039a0:	42ab      	cmp	r3, r5
 80039a2:	dc28      	bgt.n	80039f6 <_printf_common+0x9a>
 80039a4:	f894 2043 	ldrb.w	r2, [r4, #67]	; 0x43
 80039a8:	1e13      	subs	r3, r2, #0
 80039aa:	6822      	ldr	r2, [r4, #0]
 80039ac:	bf18      	it	ne
 80039ae:	2301      	movne	r3, #1
 80039b0:	0692      	lsls	r2, r2, #26
 80039b2:	d42d      	bmi.n	8003a10 <_printf_common+0xb4>
 80039b4:	4649      	mov	r1, r9
 80039b6:	4638      	mov	r0, r7
 80039b8:	f104 0243 	add.w	r2, r4, #67	; 0x43
 80039bc:	47c0      	blx	r8
 80039be:	3001      	adds	r0, #1
 80039c0:	d020      	beq.n	8003a04 <_printf_common+0xa8>
 80039c2:	6823      	ldr	r3, [r4, #0]
 80039c4:	68e5      	ldr	r5, [r4, #12]
 80039c6:	f003 0306 	and.w	r3, r3, #6
 80039ca:	2b04      	cmp	r3, #4
 80039cc:	bf18      	it	ne
 80039ce:	2500      	movne	r5, #0
 80039d0:	6832      	ldr	r2, [r6, #0]
 80039d2:	f04f 0600 	mov.w	r6, #0
 80039d6:	68a3      	ldr	r3, [r4, #8]
 80039d8:	bf08      	it	eq
 80039da:	1aad      	subeq	r5, r5, r2
 80039dc:	6922      	ldr	r2, [r4, #16]
 80039de:	bf08      	it	eq
 80039e0:	ea25 75e5 	biceq.w	r5, r5, r5, asr #31
 80039e4:	4293      	cmp	r3, r2
 80039e6:	bfc4      	itt	gt
 80039e8:	1a9b      	subgt	r3, r3, r2
 80039ea:	18ed      	addgt	r5, r5, r3
 80039ec:	341a      	adds	r4, #26
 80039ee:	42b5      	cmp	r5, r6
 80039f0:	d11a      	bne.n	8003a28 <_printf_common+0xcc>
 80039f2:	2000      	movs	r0, #0
 80039f4:	e008      	b.n	8003a08 <_printf_common+0xac>
 80039f6:	2301      	movs	r3, #1
 80039f8:	4652      	mov	r2, sl
 80039fa:	4649      	mov	r1, r9
 80039fc:	4638      	mov	r0, r7
 80039fe:	47c0      	blx	r8
 8003a00:	3001      	adds	r0, #1
 8003a02:	d103      	bne.n	8003a0c <_printf_common+0xb0>
 8003a04:	f04f 30ff 	mov.w	r0, #4294967295
 8003a08:	e8bd 87f0 	ldmia.w	sp!, {r4, r5, r6, r7, r8, r9, sl, pc}
 8003a0c:	3501      	adds	r5, #1
 8003a0e:	e7c4      	b.n	800399a <_printf_common+0x3e>
 8003a10:	2030      	movs	r0, #48	; 0x30
 8003a12:	18e1      	adds	r1, r4, r3
 8003a14:	f881 0043 	strb.w	r0, [r1, #67]	; 0x43
 8003a18:	1c5a      	adds	r2, r3, #1
 8003a1a:	f894 1045 	ldrb.w	r1, [r4, #69]	; 0x45
 8003a1e:	4422      	add	r2, r4
 8003a20:	3302      	adds	r3, #2
 8003a22:	f882 1043 	strb.w	r1, [r2, #67]	; 0x43
 8003a26:	e7c5      	b.n	80039b4 <_printf_common+0x58>
 8003a28:	2301      	movs	r3, #1
 8003a2a:	4622      	mov	r2, r4
 8003a2c:	4649      	mov	r1, r9
 8003a2e:	4638      	mov	r0, r7
 8003a30:	47c0      	blx	r8
 8003a32:	3001      	adds	r0, #1
 8003a34:	d0e6      	beq.n	8003a04 <_printf_common+0xa8>
 8003a36:	3601      	adds	r6, #1
 8003a38:	e7d9      	b.n	80039ee <_printf_common+0x92>
	...

08003a3c <_printf_i>:
 8003a3c:	e92d 47ff 	stmdb	sp!, {r0, r1, r2, r3, r4, r5, r6, r7, r8, r9, sl, lr}
 8003a40:	460c      	mov	r4, r1
 8003a42:	7e27      	ldrb	r7, [r4, #24]
 8003a44:	4691      	mov	r9, r2
 8003a46:	2f78      	cmp	r7, #120	; 0x78
 8003a48:	4680      	mov	r8, r0
 8003a4a:	469a      	mov	sl, r3
 8003a4c:	990c      	ldr	r1, [sp, #48]	; 0x30
 8003a4e:	f104 0243 	add.w	r2, r4, #67	; 0x43
 8003a52:	d807      	bhi.n	8003a64 <_printf_i+0x28>
 8003a54:	2f62      	cmp	r7, #98	; 0x62
 8003a56:	d80a      	bhi.n	8003a6e <_printf_i+0x32>
 8003a58:	2f00      	cmp	r7, #0
 8003a5a:	f000 80d9 	beq.w	8003c10 <_printf_i+0x1d4>
 8003a5e:	2f58      	cmp	r7, #88	; 0x58
 8003a60:	f000 80a4 	beq.w	8003bac <_printf_i+0x170>
 8003a64:	f104 0642 	add.w	r6, r4, #66	; 0x42
 8003a68:	f884 7042 	strb.w	r7, [r4, #66]	; 0x42
 8003a6c:	e03a      	b.n	8003ae4 <_printf_i+0xa8>
 8003a6e:	f1a7 0363 	sub.w	r3, r7, #99	; 0x63
 8003a72:	2b15      	cmp	r3, #21
 8003a74:	d8f6      	bhi.n	8003a64 <_printf_i+0x28>
 8003a76:	a001      	add	r0, pc, #4	; (adr r0, 8003a7c <_printf_i+0x40>)
 8003a78:	f850 f023 	ldr.w	pc, [r0, r3, lsl #2]
 8003a7c:	08003ad5 	.word	0x08003ad5
 8003a80:	08003ae9 	.word	0x08003ae9
 8003a84:	08003a65 	.word	0x08003a65
 8003a88:	08003a65 	.word	0x08003a65
 8003a8c:	08003a65 	.word	0x08003a65
 8003a90:	08003a65 	.word	0x08003a65
 8003a94:	08003ae9 	.word	0x08003ae9
 8003a98:	08003a65 	.word	0x08003a65
 8003a9c:	08003a65 	.word	0x08003a65
 8003aa0:	08003a65 	.word	0x08003a65
 8003aa4:	08003a65 	.word	0x08003a65
 8003aa8:	08003bf7 	.word	0x08003bf7
 8003aac:	08003b19 	.word	0x08003b19
 8003ab0:	08003bd9 	.word	0x08003bd9
 8003ab4:	08003a65 	.word	0x08003a65
 8003ab8:	08003a65 	.word	0x08003a65
 8003abc:	08003c19 	.word	0x08003c19
 8003ac0:	08003a65 	.word	0x08003a65
 8003ac4:	08003b19 	.word	0x08003b19
 8003ac8:	08003a65 	.word	0x08003a65
 8003acc:	08003a65 	.word	0x08003a65
 8003ad0:	08003be1 	.word	0x08003be1
 8003ad4:	680b      	ldr	r3, [r1, #0]
 8003ad6:	f104 0642 	add.w	r6, r4, #66	; 0x42
 8003ada:	1d1a      	adds	r2, r3, #4
 8003adc:	681b      	ldr	r3, [r3, #0]
 8003ade:	600a      	str	r2, [r1, #0]
 8003ae0:	f884 3042 	strb.w	r3, [r4, #66]	; 0x42
 8003ae4:	2301      	movs	r3, #1
 8003ae6:	e0a4      	b.n	8003c32 <_printf_i+0x1f6>
 8003ae8:	6825      	ldr	r5, [r4, #0]
 8003aea:	6808      	ldr	r0, [r1, #0]
 8003aec:	062e      	lsls	r6, r5, #24
 8003aee:	f100 0304 	add.w	r3, r0, #4
 8003af2:	d50a      	bpl.n	8003b0a <_printf_i+0xce>
 8003af4:	6805      	ldr	r5, [r0, #0]
 8003af6:	600b      	str	r3, [r1, #0]
 8003af8:	2d00      	cmp	r5, #0
 8003afa:	da03      	bge.n	8003b04 <_printf_i+0xc8>
 8003afc:	232d      	movs	r3, #45	; 0x2d
 8003afe:	426d      	negs	r5, r5
 8003b00:	f884 3043 	strb.w	r3, [r4, #67]	; 0x43
 8003b04:	230a      	movs	r3, #10
 8003b06:	485e      	ldr	r0, [pc, #376]	; (8003c80 <_printf_i+0x244>)
 8003b08:	e019      	b.n	8003b3e <_printf_i+0x102>
 8003b0a:	f015 0f40 	tst.w	r5, #64	; 0x40
 8003b0e:	6805      	ldr	r5, [r0, #0]
 8003b10:	600b      	str	r3, [r1, #0]
 8003b12:	bf18      	it	ne
 8003b14:	b22d      	sxthne	r5, r5
 8003b16:	e7ef      	b.n	8003af8 <_printf_i+0xbc>
 8003b18:	680b      	ldr	r3, [r1, #0]
 8003b1a:	6825      	ldr	r5, [r4, #0]
 8003b1c:	1d18      	adds	r0, r3, #4
 8003b1e:	6008      	str	r0, [r1, #0]
 8003b20:	0628      	lsls	r0, r5, #24
 8003b22:	d501      	bpl.n	8003b28 <_printf_i+0xec>
 8003b24:	681d      	ldr	r5, [r3, #0]
 8003b26:	e002      	b.n	8003b2e <_printf_i+0xf2>
 8003b28:	0669      	lsls	r1, r5, #25
 8003b2a:	d5fb      	bpl.n	8003b24 <_printf_i+0xe8>
 8003b2c:	881d      	ldrh	r5, [r3, #0]
 8003b2e:	2f6f      	cmp	r7, #111	; 0x6f
 8003b30:	bf0c      	ite	eq
 8003b32:	2308      	moveq	r3, #8
 8003b34:	230a      	movne	r3, #10
 8003b36:	4852      	ldr	r0, [pc, #328]	; (8003c80 <_printf_i+0x244>)
 8003b38:	2100      	movs	r1, #0
 8003b3a:	f884 1043 	strb.w	r1, [r4, #67]	; 0x43
 8003b3e:	6866      	ldr	r6, [r4, #4]
 8003b40:	2e00      	cmp	r6, #0
 8003b42:	bfa8      	it	ge
 8003b44:	6821      	ldrge	r1, [r4, #0]
 8003b46:	60a6      	str	r6, [r4, #8]
 8003b48:	bfa4      	itt	ge
 8003b4a:	f021 0104 	bicge.w	r1, r1, #4
 8003b4e:	6021      	strge	r1, [r4, #0]
 8003b50:	b90d      	cbnz	r5, 8003b56 <_printf_i+0x11a>
 8003b52:	2e00      	cmp	r6, #0
 8003b54:	d04d      	beq.n	8003bf2 <_printf_i+0x1b6>
 8003b56:	4616      	mov	r6, r2
 8003b58:	fbb5 f1f3 	udiv	r1, r5, r3
 8003b5c:	fb03 5711 	mls	r7, r3, r1, r5
 8003b60:	5dc7      	ldrb	r7, [r0, r7]
 8003b62:	f806 7d01 	strb.w	r7, [r6, #-1]!
 8003b66:	462f      	mov	r7, r5
 8003b68:	42bb      	cmp	r3, r7
 8003b6a:	460d      	mov	r5, r1
 8003b6c:	d9f4      	bls.n	8003b58 <_printf_i+0x11c>
 8003b6e:	2b08      	cmp	r3, #8
 8003b70:	d10b      	bne.n	8003b8a <_printf_i+0x14e>
 8003b72:	6823      	ldr	r3, [r4, #0]
 8003b74:	07df      	lsls	r7, r3, #31
 8003b76:	d508      	bpl.n	8003b8a <_printf_i+0x14e>
 8003b78:	6923      	ldr	r3, [r4, #16]
 8003b7a:	6861      	ldr	r1, [r4, #4]
 8003b7c:	4299      	cmp	r1, r3
 8003b7e:	bfde      	ittt	le
 8003b80:	2330      	movle	r3, #48	; 0x30
 8003b82:	f806 3c01 	strble.w	r3, [r6, #-1]
 8003b86:	f106 36ff 	addle.w	r6, r6, #4294967295
 8003b8a:	1b92      	subs	r2, r2, r6
 8003b8c:	6122      	str	r2, [r4, #16]
 8003b8e:	464b      	mov	r3, r9
 8003b90:	4621      	mov	r1, r4
 8003b92:	4640      	mov	r0, r8
 8003b94:	f8cd a000 	str.w	sl, [sp]
 8003b98:	aa03      	add	r2, sp, #12
 8003b9a:	f7ff fedf 	bl	800395c <_printf_common>
 8003b9e:	3001      	adds	r0, #1
 8003ba0:	d14c      	bne.n	8003c3c <_printf_i+0x200>
 8003ba2:	f04f 30ff 	mov.w	r0, #4294967295
 8003ba6:	b004      	add	sp, #16
 8003ba8:	e8bd 87f0 	ldmia.w	sp!, {r4, r5, r6, r7, r8, r9, sl, pc}
 8003bac:	4834      	ldr	r0, [pc, #208]	; (8003c80 <_printf_i+0x244>)
 8003bae:	f884 7045 	strb.w	r7, [r4, #69]	; 0x45
 8003bb2:	680e      	ldr	r6, [r1, #0]
 8003bb4:	6823      	ldr	r3, [r4, #0]
 8003bb6:	f856 5b04 	ldr.w	r5, [r6], #4
 8003bba:	061f      	lsls	r7, r3, #24
 8003bbc:	600e      	str	r6, [r1, #0]
 8003bbe:	d514      	bpl.n	8003bea <_printf_i+0x1ae>
 8003bc0:	07d9      	lsls	r1, r3, #31
 8003bc2:	bf44      	itt	mi
 8003bc4:	f043 0320 	orrmi.w	r3, r3, #32
 8003bc8:	6023      	strmi	r3, [r4, #0]
 8003bca:	b91d      	cbnz	r5, 8003bd4 <_printf_i+0x198>
 8003bcc:	6823      	ldr	r3, [r4, #0]
 8003bce:	f023 0320 	bic.w	r3, r3, #32
 8003bd2:	6023      	str	r3, [r4, #0]
 8003bd4:	2310      	movs	r3, #16
 8003bd6:	e7af      	b.n	8003b38 <_printf_i+0xfc>
 8003bd8:	6823      	ldr	r3, [r4, #0]
 8003bda:	f043 0320 	orr.w	r3, r3, #32
 8003bde:	6023      	str	r3, [r4, #0]
 8003be0:	2378      	movs	r3, #120	; 0x78
 8003be2:	4828      	ldr	r0, [pc, #160]	; (8003c84 <_printf_i+0x248>)
 8003be4:	f884 3045 	strb.w	r3, [r4, #69]	; 0x45
 8003be8:	e7e3      	b.n	8003bb2 <_printf_i+0x176>
 8003bea:	065e      	lsls	r6, r3, #25
 8003bec:	bf48      	it	mi
 8003bee:	b2ad      	uxthmi	r5, r5
 8003bf0:	e7e6      	b.n	8003bc0 <_printf_i+0x184>
 8003bf2:	4616      	mov	r6, r2
 8003bf4:	e7bb      	b.n	8003b6e <_printf_i+0x132>
 8003bf6:	680b      	ldr	r3, [r1, #0]
 8003bf8:	6826      	ldr	r6, [r4, #0]
 8003bfa:	1d1d      	adds	r5, r3, #4
 8003bfc:	6960      	ldr	r0, [r4, #20]
 8003bfe:	600d      	str	r5, [r1, #0]
 8003c00:	0635      	lsls	r5, r6, #24
 8003c02:	681b      	ldr	r3, [r3, #0]
 8003c04:	d501      	bpl.n	8003c0a <_printf_i+0x1ce>
 8003c06:	6018      	str	r0, [r3, #0]
 8003c08:	e002      	b.n	8003c10 <_printf_i+0x1d4>
 8003c0a:	0671      	lsls	r1, r6, #25
 8003c0c:	d5fb      	bpl.n	8003c06 <_printf_i+0x1ca>
 8003c0e:	8018      	strh	r0, [r3, #0]
 8003c10:	2300      	movs	r3, #0
 8003c12:	4616      	mov	r6, r2
 8003c14:	6123      	str	r3, [r4, #16]
 8003c16:	e7ba      	b.n	8003b8e <_printf_i+0x152>
 8003c18:	680b      	ldr	r3, [r1, #0]
 8003c1a:	1d1a      	adds	r2, r3, #4
 8003c1c:	600a      	str	r2, [r1, #0]
 8003c1e:	681e      	ldr	r6, [r3, #0]
 8003c20:	2100      	movs	r1, #0
 8003c22:	4630      	mov	r0, r6
 8003c24:	6862      	ldr	r2, [r4, #4]
 8003c26:	f000 f82f 	bl	8003c88 <memchr>
 8003c2a:	b108      	cbz	r0, 8003c30 <_printf_i+0x1f4>
 8003c2c:	1b80      	subs	r0, r0, r6
 8003c2e:	6060      	str	r0, [r4, #4]
 8003c30:	6863      	ldr	r3, [r4, #4]
 8003c32:	6123      	str	r3, [r4, #16]
 8003c34:	2300      	movs	r3, #0
 8003c36:	f884 3043 	strb.w	r3, [r4, #67]	; 0x43
 8003c3a:	e7a8      	b.n	8003b8e <_printf_i+0x152>
 8003c3c:	4632      	mov	r2, r6
 8003c3e:	4649      	mov	r1, r9
 8003c40:	4640      	mov	r0, r8
 8003c42:	6923      	ldr	r3, [r4, #16]
 8003c44:	47d0      	blx	sl
 8003c46:	3001      	adds	r0, #1
 8003c48:	d0ab      	beq.n	8003ba2 <_printf_i+0x166>
 8003c4a:	6823      	ldr	r3, [r4, #0]
 8003c4c:	079b      	lsls	r3, r3, #30
 8003c4e:	d413      	bmi.n	8003c78 <_printf_i+0x23c>
 8003c50:	68e0      	ldr	r0, [r4, #12]
 8003c52:	9b03      	ldr	r3, [sp, #12]
 8003c54:	4298      	cmp	r0, r3
 8003c56:	bfb8      	it	lt
 8003c58:	4618      	movlt	r0, r3
 8003c5a:	e7a4      	b.n	8003ba6 <_printf_i+0x16a>
 8003c5c:	2301      	movs	r3, #1
 8003c5e:	4632      	mov	r2, r6
 8003c60:	4649      	mov	r1, r9
 8003c62:	4640      	mov	r0, r8
 8003c64:	47d0      	blx	sl
 8003c66:	3001      	adds	r0, #1
 8003c68:	d09b      	beq.n	8003ba2 <_printf_i+0x166>
 8003c6a:	3501      	adds	r5, #1
 8003c6c:	68e3      	ldr	r3, [r4, #12]
 8003c6e:	9903      	ldr	r1, [sp, #12]
 8003c70:	1a5b      	subs	r3, r3, r1
 8003c72:	42ab      	cmp	r3, r5
 8003c74:	dcf2      	bgt.n	8003c5c <_printf_i+0x220>
 8003c76:	e7eb      	b.n	8003c50 <_printf_i+0x214>
 8003c78:	2500      	movs	r5, #0
 8003c7a:	f104 0619 	add.w	r6, r4, #25
 8003c7e:	e7f5      	b.n	8003c6c <_printf_i+0x230>
 8003c80:	08003f7a 	.word	0x08003f7a
 8003c84:	08003f8b 	.word	0x08003f8b

08003c88 <memchr>:
 8003c88:	4603      	mov	r3, r0
 8003c8a:	b510      	push	{r4, lr}
 8003c8c:	b2c9      	uxtb	r1, r1
 8003c8e:	4402      	add	r2, r0
 8003c90:	4293      	cmp	r3, r2
 8003c92:	4618      	mov	r0, r3
 8003c94:	d101      	bne.n	8003c9a <memchr+0x12>
 8003c96:	2000      	movs	r0, #0
 8003c98:	e003      	b.n	8003ca2 <memchr+0x1a>
 8003c9a:	7804      	ldrb	r4, [r0, #0]
 8003c9c:	3301      	adds	r3, #1
 8003c9e:	428c      	cmp	r4, r1
 8003ca0:	d1f6      	bne.n	8003c90 <memchr+0x8>
 8003ca2:	bd10      	pop	{r4, pc}

08003ca4 <memcpy>:
 8003ca4:	440a      	add	r2, r1
 8003ca6:	4291      	cmp	r1, r2
 8003ca8:	f100 33ff 	add.w	r3, r0, #4294967295
 8003cac:	d100      	bne.n	8003cb0 <memcpy+0xc>
 8003cae:	4770      	bx	lr
 8003cb0:	b510      	push	{r4, lr}
 8003cb2:	f811 4b01 	ldrb.w	r4, [r1], #1
 8003cb6:	4291      	cmp	r1, r2
 8003cb8:	f803 4f01 	strb.w	r4, [r3, #1]!
 8003cbc:	d1f9      	bne.n	8003cb2 <memcpy+0xe>
 8003cbe:	bd10      	pop	{r4, pc}

08003cc0 <memmove>:
 8003cc0:	4288      	cmp	r0, r1
 8003cc2:	b510      	push	{r4, lr}
 8003cc4:	eb01 0402 	add.w	r4, r1, r2
 8003cc8:	d902      	bls.n	8003cd0 <memmove+0x10>
 8003cca:	4284      	cmp	r4, r0
 8003ccc:	4623      	mov	r3, r4
 8003cce:	d807      	bhi.n	8003ce0 <memmove+0x20>
 8003cd0:	1e43      	subs	r3, r0, #1
 8003cd2:	42a1      	cmp	r1, r4
 8003cd4:	d008      	beq.n	8003ce8 <memmove+0x28>
 8003cd6:	f811 2b01 	ldrb.w	r2, [r1], #1
 8003cda:	f803 2f01 	strb.w	r2, [r3, #1]!
 8003cde:	e7f8      	b.n	8003cd2 <memmove+0x12>
 8003ce0:	4601      	mov	r1, r0
 8003ce2:	4402      	add	r2, r0
 8003ce4:	428a      	cmp	r2, r1
 8003ce6:	d100      	bne.n	8003cea <memmove+0x2a>
 8003ce8:	bd10      	pop	{r4, pc}
 8003cea:	f813 4d01 	ldrb.w	r4, [r3, #-1]!
 8003cee:	f802 4d01 	strb.w	r4, [r2, #-1]!
 8003cf2:	e7f7      	b.n	8003ce4 <memmove+0x24>

08003cf4 <_free_r>:
 8003cf4:	b538      	push	{r3, r4, r5, lr}
 8003cf6:	4605      	mov	r5, r0
 8003cf8:	2900      	cmp	r1, #0
 8003cfa:	d043      	beq.n	8003d84 <_free_r+0x90>
 8003cfc:	f851 3c04 	ldr.w	r3, [r1, #-4]
 8003d00:	1f0c      	subs	r4, r1, #4
 8003d02:	2b00      	cmp	r3, #0
 8003d04:	bfb8      	it	lt
 8003d06:	18e4      	addlt	r4, r4, r3
 8003d08:	f000 f8d0 	bl	8003eac <__malloc_lock>
 8003d0c:	4a1e      	ldr	r2, [pc, #120]	; (8003d88 <_free_r+0x94>)
 8003d0e:	6813      	ldr	r3, [r2, #0]
 8003d10:	4610      	mov	r0, r2
 8003d12:	b933      	cbnz	r3, 8003d22 <_free_r+0x2e>
 8003d14:	6063      	str	r3, [r4, #4]
 8003d16:	6014      	str	r4, [r2, #0]
 8003d18:	4628      	mov	r0, r5
 8003d1a:	e8bd 4038 	ldmia.w	sp!, {r3, r4, r5, lr}
 8003d1e:	f000 b8cb 	b.w	8003eb8 <__malloc_unlock>
 8003d22:	42a3      	cmp	r3, r4
 8003d24:	d90a      	bls.n	8003d3c <_free_r+0x48>
 8003d26:	6821      	ldr	r1, [r4, #0]
 8003d28:	1862      	adds	r2, r4, r1
 8003d2a:	4293      	cmp	r3, r2
 8003d2c:	bf01      	itttt	eq
 8003d2e:	681a      	ldreq	r2, [r3, #0]
 8003d30:	685b      	ldreq	r3, [r3, #4]
 8003d32:	1852      	addeq	r2, r2, r1
 8003d34:	6022      	streq	r2, [r4, #0]
 8003d36:	6063      	str	r3, [r4, #4]
 8003d38:	6004      	str	r4, [r0, #0]
 8003d3a:	e7ed      	b.n	8003d18 <_free_r+0x24>
 8003d3c:	461a      	mov	r2, r3
 8003d3e:	685b      	ldr	r3, [r3, #4]
 8003d40:	b10b      	cbz	r3, 8003d46 <_free_r+0x52>
 8003d42:	42a3      	cmp	r3, r4
 8003d44:	d9fa      	bls.n	8003d3c <_free_r+0x48>
 8003d46:	6811      	ldr	r1, [r2, #0]
 8003d48:	1850      	adds	r0, r2, r1
 8003d4a:	42a0      	cmp	r0, r4
 8003d4c:	d10b      	bne.n	8003d66 <_free_r+0x72>
 8003d4e:	6820      	ldr	r0, [r4, #0]
 8003d50:	4401      	add	r1, r0
 8003d52:	1850      	adds	r0, r2, r1
 8003d54:	4283      	cmp	r3, r0
 8003d56:	6011      	str	r1, [r2, #0]
 8003d58:	d1de      	bne.n	8003d18 <_free_r+0x24>
 8003d5a:	6818      	ldr	r0, [r3, #0]
 8003d5c:	685b      	ldr	r3, [r3, #4]
 8003d5e:	4401      	add	r1, r0
 8003d60:	6011      	str	r1, [r2, #0]
 8003d62:	6053      	str	r3, [r2, #4]
 8003d64:	e7d8      	b.n	8003d18 <_free_r+0x24>
 8003d66:	d902      	bls.n	8003d6e <_free_r+0x7a>
 8003d68:	230c      	movs	r3, #12
 8003d6a:	602b      	str	r3, [r5, #0]
 8003d6c:	e7d4      	b.n	8003d18 <_free_r+0x24>
 8003d6e:	6820      	ldr	r0, [r4, #0]
 8003d70:	1821      	adds	r1, r4, r0
 8003d72:	428b      	cmp	r3, r1
 8003d74:	bf01      	itttt	eq
 8003d76:	6819      	ldreq	r1, [r3, #0]
 8003d78:	685b      	ldreq	r3, [r3, #4]
 8003d7a:	1809      	addeq	r1, r1, r0
 8003d7c:	6021      	streq	r1, [r4, #0]
 8003d7e:	6063      	str	r3, [r4, #4]
 8003d80:	6054      	str	r4, [r2, #4]
 8003d82:	e7c9      	b.n	8003d18 <_free_r+0x24>
 8003d84:	bd38      	pop	{r3, r4, r5, pc}
 8003d86:	bf00      	nop
 8003d88:	200002a8 	.word	0x200002a8

08003d8c <_malloc_r>:
 8003d8c:	b5f8      	push	{r3, r4, r5, r6, r7, lr}
 8003d8e:	1ccd      	adds	r5, r1, #3
 8003d90:	f025 0503 	bic.w	r5, r5, #3
 8003d94:	3508      	adds	r5, #8
 8003d96:	2d0c      	cmp	r5, #12
 8003d98:	bf38      	it	cc
 8003d9a:	250c      	movcc	r5, #12
 8003d9c:	2d00      	cmp	r5, #0
 8003d9e:	4606      	mov	r6, r0
 8003da0:	db01      	blt.n	8003da6 <_malloc_r+0x1a>
 8003da2:	42a9      	cmp	r1, r5
 8003da4:	d903      	bls.n	8003dae <_malloc_r+0x22>
 8003da6:	230c      	movs	r3, #12
 8003da8:	6033      	str	r3, [r6, #0]
 8003daa:	2000      	movs	r0, #0
 8003dac:	bdf8      	pop	{r3, r4, r5, r6, r7, pc}
 8003dae:	f000 f87d 	bl	8003eac <__malloc_lock>
 8003db2:	4921      	ldr	r1, [pc, #132]	; (8003e38 <_malloc_r+0xac>)
 8003db4:	680a      	ldr	r2, [r1, #0]
 8003db6:	4614      	mov	r4, r2
 8003db8:	b99c      	cbnz	r4, 8003de2 <_malloc_r+0x56>
 8003dba:	4f20      	ldr	r7, [pc, #128]	; (8003e3c <_malloc_r+0xb0>)
 8003dbc:	683b      	ldr	r3, [r7, #0]
 8003dbe:	b923      	cbnz	r3, 8003dca <_malloc_r+0x3e>
 8003dc0:	4621      	mov	r1, r4
 8003dc2:	4630      	mov	r0, r6
 8003dc4:	f000 f862 	bl	8003e8c <_sbrk_r>
 8003dc8:	6038      	str	r0, [r7, #0]
 8003dca:	4629      	mov	r1, r5
 8003dcc:	4630      	mov	r0, r6
 8003dce:	f000 f85d 	bl	8003e8c <_sbrk_r>
 8003dd2:	1c43      	adds	r3, r0, #1
 8003dd4:	d123      	bne.n	8003e1e <_malloc_r+0x92>
 8003dd6:	230c      	movs	r3, #12
 8003dd8:	4630      	mov	r0, r6
 8003dda:	6033      	str	r3, [r6, #0]
 8003ddc:	f000 f86c 	bl	8003eb8 <__malloc_unlock>
 8003de0:	e7e3      	b.n	8003daa <_malloc_r+0x1e>
 8003de2:	6823      	ldr	r3, [r4, #0]
 8003de4:	1b5b      	subs	r3, r3, r5
 8003de6:	d417      	bmi.n	8003e18 <_malloc_r+0x8c>
 8003de8:	2b0b      	cmp	r3, #11
 8003dea:	d903      	bls.n	8003df4 <_malloc_r+0x68>
 8003dec:	6023      	str	r3, [r4, #0]
 8003dee:	441c      	add	r4, r3
 8003df0:	6025      	str	r5, [r4, #0]
 8003df2:	e004      	b.n	8003dfe <_malloc_r+0x72>
 8003df4:	6863      	ldr	r3, [r4, #4]
 8003df6:	42a2      	cmp	r2, r4
 8003df8:	bf0c      	ite	eq
 8003dfa:	600b      	streq	r3, [r1, #0]
 8003dfc:	6053      	strne	r3, [r2, #4]
 8003dfe:	4630      	mov	r0, r6
 8003e00:	f000 f85a 	bl	8003eb8 <__malloc_unlock>
 8003e04:	f104 000b 	add.w	r0, r4, #11
 8003e08:	1d23      	adds	r3, r4, #4
 8003e0a:	f020 0007 	bic.w	r0, r0, #7
 8003e0e:	1ac2      	subs	r2, r0, r3
 8003e10:	d0cc      	beq.n	8003dac <_malloc_r+0x20>
 8003e12:	1a1b      	subs	r3, r3, r0
 8003e14:	50a3      	str	r3, [r4, r2]
 8003e16:	e7c9      	b.n	8003dac <_malloc_r+0x20>
 8003e18:	4622      	mov	r2, r4
 8003e1a:	6864      	ldr	r4, [r4, #4]
 8003e1c:	e7cc      	b.n	8003db8 <_malloc_r+0x2c>
 8003e1e:	1cc4      	adds	r4, r0, #3
 8003e20:	f024 0403 	bic.w	r4, r4, #3
 8003e24:	42a0      	cmp	r0, r4
 8003e26:	d0e3      	beq.n	8003df0 <_malloc_r+0x64>
 8003e28:	1a21      	subs	r1, r4, r0
 8003e2a:	4630      	mov	r0, r6
 8003e2c:	f000 f82e 	bl	8003e8c <_sbrk_r>
 8003e30:	3001      	adds	r0, #1
 8003e32:	d1dd      	bne.n	8003df0 <_malloc_r+0x64>
 8003e34:	e7cf      	b.n	8003dd6 <_malloc_r+0x4a>
 8003e36:	bf00      	nop
 8003e38:	200002a8 	.word	0x200002a8
 8003e3c:	200002ac 	.word	0x200002ac

08003e40 <_realloc_r>:
 8003e40:	b5f8      	push	{r3, r4, r5, r6, r7, lr}
 8003e42:	4607      	mov	r7, r0
 8003e44:	4614      	mov	r4, r2
 8003e46:	460e      	mov	r6, r1
 8003e48:	b921      	cbnz	r1, 8003e54 <_realloc_r+0x14>
 8003e4a:	4611      	mov	r1, r2
 8003e4c:	e8bd 40f8 	ldmia.w	sp!, {r3, r4, r5, r6, r7, lr}
 8003e50:	f7ff bf9c 	b.w	8003d8c <_malloc_r>
 8003e54:	b922      	cbnz	r2, 8003e60 <_realloc_r+0x20>
 8003e56:	f7ff ff4d 	bl	8003cf4 <_free_r>
 8003e5a:	4625      	mov	r5, r4
 8003e5c:	4628      	mov	r0, r5
 8003e5e:	bdf8      	pop	{r3, r4, r5, r6, r7, pc}
 8003e60:	f000 f830 	bl	8003ec4 <_malloc_usable_size_r>
 8003e64:	42a0      	cmp	r0, r4
 8003e66:	d20f      	bcs.n	8003e88 <_realloc_r+0x48>
 8003e68:	4621      	mov	r1, r4
 8003e6a:	4638      	mov	r0, r7
 8003e6c:	f7ff ff8e 	bl	8003d8c <_malloc_r>
 8003e70:	4605      	mov	r5, r0
 8003e72:	2800      	cmp	r0, #0
 8003e74:	d0f2      	beq.n	8003e5c <_realloc_r+0x1c>
 8003e76:	4631      	mov	r1, r6
 8003e78:	4622      	mov	r2, r4
 8003e7a:	f7ff ff13 	bl	8003ca4 <memcpy>
 8003e7e:	4631      	mov	r1, r6
 8003e80:	4638      	mov	r0, r7
 8003e82:	f7ff ff37 	bl	8003cf4 <_free_r>
 8003e86:	e7e9      	b.n	8003e5c <_realloc_r+0x1c>
 8003e88:	4635      	mov	r5, r6
 8003e8a:	e7e7      	b.n	8003e5c <_realloc_r+0x1c>

08003e8c <_sbrk_r>:
 8003e8c:	b538      	push	{r3, r4, r5, lr}
 8003e8e:	2300      	movs	r3, #0
 8003e90:	4d05      	ldr	r5, [pc, #20]	; (8003ea8 <_sbrk_r+0x1c>)
 8003e92:	4604      	mov	r4, r0
 8003e94:	4608      	mov	r0, r1
 8003e96:	602b      	str	r3, [r5, #0]
 8003e98:	f7fd fc3e 	bl	8001718 <_sbrk>
 8003e9c:	1c43      	adds	r3, r0, #1
 8003e9e:	d102      	bne.n	8003ea6 <_sbrk_r+0x1a>
 8003ea0:	682b      	ldr	r3, [r5, #0]
 8003ea2:	b103      	cbz	r3, 8003ea6 <_sbrk_r+0x1a>
 8003ea4:	6023      	str	r3, [r4, #0]
 8003ea6:	bd38      	pop	{r3, r4, r5, pc}
 8003ea8:	2000045c 	.word	0x2000045c

08003eac <__malloc_lock>:
 8003eac:	4801      	ldr	r0, [pc, #4]	; (8003eb4 <__malloc_lock+0x8>)
 8003eae:	f000 b811 	b.w	8003ed4 <__retarget_lock_acquire_recursive>
 8003eb2:	bf00      	nop
 8003eb4:	20000464 	.word	0x20000464

08003eb8 <__malloc_unlock>:
 8003eb8:	4801      	ldr	r0, [pc, #4]	; (8003ec0 <__malloc_unlock+0x8>)
 8003eba:	f000 b80c 	b.w	8003ed6 <__retarget_lock_release_recursive>
 8003ebe:	bf00      	nop
 8003ec0:	20000464 	.word	0x20000464

08003ec4 <_malloc_usable_size_r>:
 8003ec4:	f851 3c04 	ldr.w	r3, [r1, #-4]
 8003ec8:	1f18      	subs	r0, r3, #4
 8003eca:	2b00      	cmp	r3, #0
 8003ecc:	bfbc      	itt	lt
 8003ece:	580b      	ldrlt	r3, [r1, r0]
 8003ed0:	18c0      	addlt	r0, r0, r3
 8003ed2:	4770      	bx	lr

08003ed4 <__retarget_lock_acquire_recursive>:
 8003ed4:	4770      	bx	lr

08003ed6 <__retarget_lock_release_recursive>:
 8003ed6:	4770      	bx	lr

08003ed8 <_init>:
 8003ed8:	b5f8      	push	{r3, r4, r5, r6, r7, lr}
 8003eda:	bf00      	nop
 8003edc:	bcf8      	pop	{r3, r4, r5, r6, r7}
 8003ede:	bc08      	pop	{r3}
 8003ee0:	469e      	mov	lr, r3
 8003ee2:	4770      	bx	lr

08003ee4 <_fini>:
 8003ee4:	b5f8      	push	{r3, r4, r5, r6, r7, lr}
 8003ee6:	bf00      	nop
 8003ee8:	bcf8      	pop	{r3, r4, r5, r6, r7}
 8003eea:	bc08      	pop	{r3}
 8003eec:	469e      	mov	lr, r3
 8003eee:	4770      	bx	lr
